
AVRASM ver. 2.1.17  D:\My documents\Programming\Projects\Light\List\PWM.asm Sat Nov 20 14:54:36 2010

D:\My documents\Programming\Projects\Light\List\PWM.asm(1026): warning: Register r5 already defined by the .DEF directive
D:\My documents\Programming\Projects\Light\List\PWM.asm(1027): warning: Register r4 already defined by the .DEF directive
D:\My documents\Programming\Projects\Light\List\PWM.asm(1028): warning: Register r7 already defined by the .DEF directive
D:\My documents\Programming\Projects\Light\List\PWM.asm(1029): warning: Register r6 already defined by the .DEF directive
D:\My documents\Programming\Projects\Light\List\PWM.asm(1030): warning: Register r9 already defined by the .DEF directive
D:\My documents\Programming\Projects\Light\List\PWM.asm(1031): warning: Register r8 already defined by the .DEF directive
D:\My documents\Programming\Projects\Light\List\PWM.asm(1032): warning: Register r11 already defined by the .DEF directive
D:\My documents\Programming\Projects\Light\List\PWM.asm(1033): warning: Register r10 already defined by the .DEF directive
D:\My documents\Programming\Projects\Light\List\PWM.asm(1034): warning: Register r13 already defined by the .DEF directive
D:\My documents\Programming\Projects\Light\List\PWM.asm(1035): warning: Register r12 already defined by the .DEF directive
                 
                 
                 ;CodeVisionAVR C Compiler V2.03.4 Standard
                 ;(C) Copyright 1998-2008 Pavel Haiduc, HP InfoTech s.r.l.
                 ;http://www.hpinfotech.com
                 
                 ;Chip type              : ATmega8L
                 ;Program type           : Application
                 ;Clock frequency        : 8,000000 MHz
                 ;Memory model           : Small
                 ;Optimize for           : Speed
                 ;(s)printf features     : int, width
                 ;(s)scanf features      : int, width
                 ;External RAM size      : 0
                 ;Data Stack size        : 256 byte(s)
                 ;Heap size              : 0 byte(s)
                 ;Promote char to int    : Yes
                 ;char is unsigned       : Yes
                 ;global const stored in FLASH  : No
                 ;8 bit enums            : Yes
                 ;Enhanced core instructions    : On
                 ;Smart register allocation : On
                 ;Automatic register allocation : On
                 
                 	#pragma AVRPART ADMIN PART_NAME ATmega8L
                 	#pragma AVRPART MEMORY PROG_FLASH 8192
                 	#pragma AVRPART MEMORY EEPROM 512
                 	#pragma AVRPART MEMORY INT_SRAM SIZE 1024
                 	#pragma AVRPART MEMORY INT_SRAM START_ADDR 0x60
                 
                 	.LISTMAC
                 	.EQU UDRE=0x5
                 	.EQU RXC=0x7
                 	.EQU USR=0xB
                 	.EQU UDR=0xC
                 	.EQU SPSR=0xE
                 	.EQU SPDR=0xF
                 	.EQU EERE=0x0
                 	.EQU EEWE=0x1
                 	.EQU EEMWE=0x2
                 	.EQU EECR=0x1C
                 	.EQU EEDR=0x1D
                 	.EQU EEARL=0x1E
                 	.EQU EEARH=0x1F
                 	.EQU WDTCR=0x21
                 	.EQU MCUCR=0x35
                 	.EQU GICR=0x3B
                 	.EQU SPL=0x3D
                 	.EQU SPH=0x3E
                 	.EQU SREG=0x3F
                 
                 	.DEF R0X0=R0
                 	.DEF R0X1=R1
                 	.DEF R0X2=R2
                 	.DEF R0X3=R3
                 	.DEF R0X4=R4
                 	.DEF R0X5=R5
                 	.DEF R0X6=R6
                 	.DEF R0X7=R7
                 	.DEF R0X8=R8
                 	.DEF R0X9=R9
                 	.DEF R0XA=R10
                 	.DEF R0XB=R11
                 	.DEF R0XC=R12
                 	.DEF R0XD=R13
                 	.DEF R0XE=R14
                 	.DEF R0XF=R15
                 	.DEF R0X10=R16
                 	.DEF R0X11=R17
                 	.DEF R0X12=R18
                 	.DEF R0X13=R19
                 	.DEF R0X14=R20
                 	.DEF R0X15=R21
                 	.DEF R0X16=R22
                 	.DEF R0X17=R23
                 	.DEF R0X18=R24
                 	.DEF R0X19=R25
                 	.DEF R0X1A=R26
                 	.DEF R0X1B=R27
                 	.DEF R0X1C=R28
                 	.DEF R0X1D=R29
                 	.DEF R0X1E=R30
                 	.DEF R0X1F=R31
                 
                 	.MACRO __CPD1N
                 	CPI  R30,LOW(@0)
                 	LDI  R26,HIGH(@0)
                 	CPC  R31,R26
                 	LDI  R26,BYTE3(@0)
                 	CPC  R22,R26
                 	LDI  R26,BYTE4(@0)
                 	CPC  R23,R26
                 	.ENDM
                 
                 	.MACRO __CPD2N
                 	CPI  R26,LOW(@0)
                 	LDI  R30,HIGH(@0)
                 	CPC  R27,R30
                 	LDI  R30,BYTE3(@0)
                 	CPC  R24,R30
                 	LDI  R30,BYTE4(@0)
                 	CPC  R25,R30
                 	.ENDM
                 
                 	.MACRO __CPWRR
                 	CP   R@0,R@2
                 	CPC  R@1,R@3
                 	.ENDM
                 
                 	.MACRO __CPWRN
                 	CPI  R@0,LOW(@2)
                 	LDI  R30,HIGH(@2)
                 	CPC  R@1,R30
                 	.ENDM
                 
                 	.MACRO __ADDB1MN
                 	SUBI R30,LOW(-@0-(@1))
                 	.ENDM
                 
                 	.MACRO __ADDB2MN
                 	SUBI R26,LOW(-@0-(@1))
                 	.ENDM
                 
                 	.MACRO __ADDW1MN
                 	SUBI R30,LOW(-@0-(@1))
                 	SBCI R31,HIGH(-@0-(@1))
                 	.ENDM
                 
                 	.MACRO __ADDW2MN
                 	SUBI R26,LOW(-@0-(@1))
                 	SBCI R27,HIGH(-@0-(@1))
                 	.ENDM
                 
                 	.MACRO __ADDW1FN
                 	SUBI R30,LOW(-2*@0-(@1))
                 	SBCI R31,HIGH(-2*@0-(@1))
                 	.ENDM
                 
                 	.MACRO __ADDD1FN
                 	SUBI R30,LOW(-2*@0-(@1))
                 	SBCI R31,HIGH(-2*@0-(@1))
                 	SBCI R22,BYTE3(-2*@0-(@1))
                 	.ENDM
                 
                 	.MACRO __ADDD1N
                 	SUBI R30,LOW(-@0)
                 	SBCI R31,HIGH(-@0)
                 	SBCI R22,BYTE3(-@0)
                 	SBCI R23,BYTE4(-@0)
                 	.ENDM
                 
                 	.MACRO __ADDD2N
                 	SUBI R26,LOW(-@0)
                 	SBCI R27,HIGH(-@0)
                 	SBCI R24,BYTE3(-@0)
                 	SBCI R25,BYTE4(-@0)
                 	.ENDM
                 
                 	.MACRO __SUBD1N
                 	SUBI R30,LOW(@0)
                 	SBCI R31,HIGH(@0)
                 	SBCI R22,BYTE3(@0)
                 	SBCI R23,BYTE4(@0)
                 	.ENDM
                 
                 	.MACRO __SUBD2N
                 	SUBI R26,LOW(@0)
                 	SBCI R27,HIGH(@0)
                 	SBCI R24,BYTE3(@0)
                 	SBCI R25,BYTE4(@0)
                 	.ENDM
                 
                 	.MACRO __ANDBMNN
                 	LDS  R30,@0+@1
                 	ANDI R30,LOW(@2)
                 	STS  @0+@1,R30
                 	.ENDM
                 
                 	.MACRO __ANDWMNN
                 	LDS  R30,@0+@1
                 	ANDI R30,LOW(@2)
                 	STS  @0+@1,R30
                 	LDS  R30,@0+@1+1
                 	ANDI R30,HIGH(@2)
                 	STS  @0+@1+1,R30
                 	.ENDM
                 
                 	.MACRO __ANDD1N
                 	ANDI R30,LOW(@0)
                 	ANDI R31,HIGH(@0)
                 	ANDI R22,BYTE3(@0)
                 	ANDI R23,BYTE4(@0)
                 	.ENDM
                 
                 	.MACRO __ANDD2N
                 	ANDI R26,LOW(@0)
                 	ANDI R27,HIGH(@0)
                 	ANDI R24,BYTE3(@0)
                 	ANDI R25,BYTE4(@0)
                 	.ENDM
                 
                 	.MACRO __ORBMNN
                 	LDS  R30,@0+@1
                 	ORI  R30,LOW(@2)
                 	STS  @0+@1,R30
                 	.ENDM
                 
                 	.MACRO __ORWMNN
                 	LDS  R30,@0+@1
                 	ORI  R30,LOW(@2)
                 	STS  @0+@1,R30
                 	LDS  R30,@0+@1+1
                 	ORI  R30,HIGH(@2)
                 	STS  @0+@1+1,R30
                 	.ENDM
                 
                 	.MACRO __ORD1N
                 	ORI  R30,LOW(@0)
                 	ORI  R31,HIGH(@0)
                 	ORI  R22,BYTE3(@0)
                 	ORI  R23,BYTE4(@0)
                 	.ENDM
                 
                 	.MACRO __ORD2N
                 	ORI  R26,LOW(@0)
                 	ORI  R27,HIGH(@0)
                 	ORI  R24,BYTE3(@0)
                 	ORI  R25,BYTE4(@0)
                 	.ENDM
                 
                 	.MACRO __DELAY_USB
                 	LDI  R24,LOW(@0)
                 __DELAY_USB_LOOP:
                 	DEC  R24
                 	BRNE __DELAY_USB_LOOP
                 	.ENDM
                 
                 	.MACRO __DELAY_USW
                 	LDI  R24,LOW(@0)
                 	LDI  R25,HIGH(@0)
                 __DELAY_USW_LOOP:
                 	SBIW R24,1
                 	BRNE __DELAY_USW_LOOP
                 	.ENDM
                 
                 	.MACRO __CLRD1S
                 	LDI  R30,0
                 	STD  Y+@0,R30
                 	STD  Y+@0+1,R30
                 	STD  Y+@0+2,R30
                 	STD  Y+@0+3,R30
                 	.ENDM
                 
                 	.MACRO __GETD1S
                 	LDD  R30,Y+@0
                 	LDD  R31,Y+@0+1
                 	LDD  R22,Y+@0+2
                 	LDD  R23,Y+@0+3
                 	.ENDM
                 
                 	.MACRO __PUTD1S
                 	STD  Y+@0,R30
                 	STD  Y+@0+1,R31
                 	STD  Y+@0+2,R22
                 	STD  Y+@0+3,R23
                 	.ENDM
                 
                 	.MACRO __PUTD2S
                 	STD  Y+@0,R26
                 	STD  Y+@0+1,R27
                 	STD  Y+@0+2,R24
                 	STD  Y+@0+3,R25
                 	.ENDM
                 
                 	.MACRO __POINTB1MN
                 	LDI  R30,LOW(@0+@1)
                 	.ENDM
                 
                 	.MACRO __POINTW1MN
                 	LDI  R30,LOW(@0+@1)
                 	LDI  R31,HIGH(@0+@1)
                 	.ENDM
                 
                 	.MACRO __POINTD1M
                 	LDI  R30,LOW(@0)
                 	LDI  R31,HIGH(@0)
                 	LDI  R22,BYTE3(@0)
                 	LDI  R23,BYTE4(@0)
                 	.ENDM
                 
                 	.MACRO __POINTW1FN
                 	LDI  R30,LOW(2*@0+@1)
                 	LDI  R31,HIGH(2*@0+@1)
                 	.ENDM
                 
                 	.MACRO __POINTD1FN
                 	LDI  R30,LOW(2*@0+@1)
                 	LDI  R31,HIGH(2*@0+@1)
                 	LDI  R22,BYTE3(2*@0+@1)
                 	LDI  R23,BYTE4(2*@0+@1)
                 	.ENDM
                 
                 	.MACRO __POINTB2MN
                 	LDI  R26,LOW(@0+@1)
                 	.ENDM
                 
                 	.MACRO __POINTW2MN
                 	LDI  R26,LOW(@0+@1)
                 	LDI  R27,HIGH(@0+@1)
                 	.ENDM
                 
                 	.MACRO __POINTBRM
                 	LDI  R@0,LOW(@1)
                 	.ENDM
                 
                 	.MACRO __POINTWRM
                 	LDI  R@0,LOW(@2)
                 	LDI  R@1,HIGH(@2)
                 	.ENDM
                 
                 	.MACRO __POINTBRMN
                 	LDI  R@0,LOW(@1+@2)
                 	.ENDM
                 
                 	.MACRO __POINTWRMN
                 	LDI  R@0,LOW(@2+@3)
                 	LDI  R@1,HIGH(@2+@3)
                 	.ENDM
                 
                 	.MACRO __POINTWRFN
                 	LDI  R@0,LOW(@2*2+@3)
                 	LDI  R@1,HIGH(@2*2+@3)
                 	.ENDM
                 
                 	.MACRO __GETD1N
                 	LDI  R30,LOW(@0)
                 	LDI  R31,HIGH(@0)
                 	LDI  R22,BYTE3(@0)
                 	LDI  R23,BYTE4(@0)
                 	.ENDM
                 
                 	.MACRO __GETD2N
                 	LDI  R26,LOW(@0)
                 	LDI  R27,HIGH(@0)
                 	LDI  R24,BYTE3(@0)
                 	LDI  R25,BYTE4(@0)
                 	.ENDM
                 
                 	.MACRO __GETD2S
                 	LDD  R26,Y+@0
                 	LDD  R27,Y+@0+1
                 	LDD  R24,Y+@0+2
                 	LDD  R25,Y+@0+3
                 	.ENDM
                 
                 	.MACRO __GETB1MN
                 	LDS  R30,@0+@1
                 	.ENDM
                 
                 	.MACRO __GETB1HMN
                 	LDS  R31,@0+@1
                 	.ENDM
                 
                 	.MACRO __GETW1MN
                 	LDS  R30,@0+@1
                 	LDS  R31,@0+@1+1
                 	.ENDM
                 
                 	.MACRO __GETD1MN
                 	LDS  R30,@0+@1
                 	LDS  R31,@0+@1+1
                 	LDS  R22,@0+@1+2
                 	LDS  R23,@0+@1+3
                 	.ENDM
                 
                 	.MACRO __GETBRMN
                 	LDS  R@0,@1+@2
                 	.ENDM
                 
                 	.MACRO __GETWRMN
                 	LDS  R@0,@2+@3
                 	LDS  R@1,@2+@3+1
                 	.ENDM
                 
                 	.MACRO __GETWRZ
                 	LDD  R@0,Z+@2
                 	LDD  R@1,Z+@2+1
                 	.ENDM
                 
                 	.MACRO __GETD2Z
                 	LDD  R26,Z+@0
                 	LDD  R27,Z+@0+1
                 	LDD  R24,Z+@0+2
                 	LDD  R25,Z+@0+3
                 	.ENDM
                 
                 	.MACRO __GETB2MN
                 	LDS  R26,@0+@1
                 	.ENDM
                 
                 	.MACRO __GETW2MN
                 	LDS  R26,@0+@1
                 	LDS  R27,@0+@1+1
                 	.ENDM
                 
                 	.MACRO __GETD2MN
                 	LDS  R26,@0+@1
                 	LDS  R27,@0+@1+1
                 	LDS  R24,@0+@1+2
                 	LDS  R25,@0+@1+3
                 	.ENDM
                 
                 	.MACRO __PUTB1MN
                 	STS  @0+@1,R30
                 	.ENDM
                 
                 	.MACRO __PUTW1MN
                 	STS  @0+@1,R30
                 	STS  @0+@1+1,R31
                 	.ENDM
                 
                 	.MACRO __PUTD1MN
                 	STS  @0+@1,R30
                 	STS  @0+@1+1,R31
                 	STS  @0+@1+2,R22
                 	STS  @0+@1+3,R23
                 	.ENDM
                 
                 	.MACRO __PUTB1EN
                 	LDI  R26,LOW(@0+@1)
                 	LDI  R27,HIGH(@0+@1)
                 	RCALL __EEPROMWRB
                 	.ENDM
                 
                 	.MACRO __PUTW1EN
                 	LDI  R26,LOW(@0+@1)
                 	LDI  R27,HIGH(@0+@1)
                 	RCALL __EEPROMWRW
                 	.ENDM
                 
                 	.MACRO __PUTD1EN
                 	LDI  R26,LOW(@0+@1)
                 	LDI  R27,HIGH(@0+@1)
                 	RCALL __EEPROMWRD
                 	.ENDM
                 
                 	.MACRO __PUTBR0MN
                 	STS  @0+@1,R0
                 	.ENDM
                 
                 	.MACRO __PUTDZ2
                 	STD  Z+@0,R26
                 	STD  Z+@0+1,R27
                 	STD  Z+@0+2,R24
                 	STD  Z+@0+3,R25
                 	.ENDM
                 
                 	.MACRO __PUTBMRN
                 	STS  @0+@1,R@2
                 	.ENDM
                 
                 	.MACRO __PUTWMRN
                 	STS  @0+@1,R@2
                 	STS  @0+@1+1,R@3
                 	.ENDM
                 
                 	.MACRO __PUTBZR
                 	STD  Z+@1,R@0
                 	.ENDM
                 
                 	.MACRO __PUTWZR
                 	STD  Z+@2,R@0
                 	STD  Z+@2+1,R@1
                 	.ENDM
                 
                 	.MACRO __GETW1R
                 	MOV  R30,R@0
                 	MOV  R31,R@1
                 	.ENDM
                 
                 	.MACRO __GETW2R
                 	MOV  R26,R@0
                 	MOV  R27,R@1
                 	.ENDM
                 
                 	.MACRO __GETWRN
                 	LDI  R@0,LOW(@2)
                 	LDI  R@1,HIGH(@2)
                 	.ENDM
                 
                 	.MACRO __PUTW1R
                 	MOV  R@0,R30
                 	MOV  R@1,R31
                 	.ENDM
                 
                 	.MACRO __PUTW2R
                 	MOV  R@0,R26
                 	MOV  R@1,R27
                 	.ENDM
                 
                 	.MACRO __ADDWRN
                 	SUBI R@0,LOW(-@2)
                 	SBCI R@1,HIGH(-@2)
                 	.ENDM
                 
                 	.MACRO __ADDWRR
                 	ADD  R@0,R@2
                 	ADC  R@1,R@3
                 	.ENDM
                 
                 	.MACRO __SUBWRN
                 	SUBI R@0,LOW(@2)
                 	SBCI R@1,HIGH(@2)
                 	.ENDM
                 
                 	.MACRO __SUBWRR
                 	SUB  R@0,R@2
                 	SBC  R@1,R@3
                 	.ENDM
                 
                 	.MACRO __ANDWRN
                 	ANDI R@0,LOW(@2)
                 	ANDI R@1,HIGH(@2)
                 	.ENDM
                 
                 	.MACRO __ANDWRR
                 	AND  R@0,R@2
                 	AND  R@1,R@3
                 	.ENDM
                 
                 	.MACRO __ORWRN
                 	ORI  R@0,LOW(@2)
                 	ORI  R@1,HIGH(@2)
                 	.ENDM
                 
                 	.MACRO __ORWRR
                 	OR   R@0,R@2
                 	OR   R@1,R@3
                 	.ENDM
                 
                 	.MACRO __EORWRR
                 	EOR  R@0,R@2
                 	EOR  R@1,R@3
                 	.ENDM
                 
                 	.MACRO __GETWRS
                 	LDD  R@0,Y+@2
                 	LDD  R@1,Y+@2+1
                 	.ENDM
                 
                 	.MACRO __PUTWSR
                 	STD  Y+@2,R@0
                 	STD  Y+@2+1,R@1
                 	.ENDM
                 
                 	.MACRO __MOVEWRR
                 	MOV  R@0,R@2
                 	MOV  R@1,R@3
                 	.ENDM
                 
                 	.MACRO __INWR
                 	IN   R@0,@2
                 	IN   R@1,@2+1
                 	.ENDM
                 
                 	.MACRO __OUTWR
                 	OUT  @2+1,R@1
                 	OUT  @2,R@0
                 	.ENDM
                 
                 	.MACRO __CALL1MN
                 	LDS  R30,@0+@1
                 	LDS  R31,@0+@1+1
                 	ICALL
                 	.ENDM
                 
                 	.MACRO __CALL1FN
                 	LDI  R30,LOW(2*@0+@1)
                 	LDI  R31,HIGH(2*@0+@1)
                 	RCALL __GETW1PF
                 	ICALL
                 	.ENDM
                 
                 	.MACRO __CALL2EN
                 	LDI  R26,LOW(@0+@1)
                 	LDI  R27,HIGH(@0+@1)
                 	RCALL __EEPROMRDW
                 	ICALL
                 	.ENDM
                 
                 	.MACRO __GETW1STACK
                 	IN   R26,SPL
                 	IN   R27,SPH
                 	ADIW R26,@0+1
                 	LD   R30,X+
                 	LD   R31,X
                 	.ENDM
                 
                 	.MACRO __NBST
                 	BST  R@0,@1
                 	IN   R30,SREG
                 	LDI  R31,0x40
                 	EOR  R30,R31
                 	OUT  SREG,R30
                 	.ENDM
                 
                 
                 	.MACRO __PUTB1SN
                 	LDD  R26,Y+@0
                 	LDD  R27,Y+@0+1
                 	SUBI R26,LOW(-@1)
                 	SBCI R27,HIGH(-@1)
                 	ST   X,R30
                 	.ENDM
                 
                 	.MACRO __PUTW1SN
                 	LDD  R26,Y+@0
                 	LDD  R27,Y+@0+1
                 	SUBI R26,LOW(-@1)
                 	SBCI R27,HIGH(-@1)
                 	ST   X+,R30
                 	ST   X,R31
                 	.ENDM
                 
                 	.MACRO __PUTD1SN
                 	LDD  R26,Y+@0
                 	LDD  R27,Y+@0+1
                 	SUBI R26,LOW(-@1)
                 	SBCI R27,HIGH(-@1)
                 	RCALL __PUTDP1
                 	.ENDM
                 
                 	.MACRO __PUTB1SNS
                 	LDD  R26,Y+@0
                 	LDD  R27,Y+@0+1
                 	ADIW R26,@1
                 	ST   X,R30
                 	.ENDM
                 
                 	.MACRO __PUTW1SNS
                 	LDD  R26,Y+@0
                 	LDD  R27,Y+@0+1
                 	ADIW R26,@1
                 	ST   X+,R30
                 	ST   X,R31
                 	.ENDM
                 
                 	.MACRO __PUTD1SNS
                 	LDD  R26,Y+@0
                 	LDD  R27,Y+@0+1
                 	ADIW R26,@1
                 	RCALL __PUTDP1
                 	.ENDM
                 
                 	.MACRO __PUTB1PMN
                 	LDS  R26,@0
                 	LDS  R27,@0+1
                 	SUBI R26,LOW(-@1)
                 	SBCI R27,HIGH(-@1)
                 	ST   X,R30
                 	.ENDM
                 
                 	.MACRO __PUTW1PMN
                 	LDS  R26,@0
                 	LDS  R27,@0+1
                 	SUBI R26,LOW(-@1)
                 	SBCI R27,HIGH(-@1)
                 	ST   X+,R30
                 	ST   X,R31
                 	.ENDM
                 
                 	.MACRO __PUTD1PMN
                 	LDS  R26,@0
                 	LDS  R27,@0+1
                 	SUBI R26,LOW(-@1)
                 	SBCI R27,HIGH(-@1)
                 	RCALL __PUTDP1
                 	.ENDM
                 
                 	.MACRO __PUTB1PMNS
                 	LDS  R26,@0
                 	LDS  R27,@0+1
                 	ADIW R26,@1
                 	ST   X,R30
                 	.ENDM
                 
                 	.MACRO __PUTW1PMNS
                 	LDS  R26,@0
                 	LDS  R27,@0+1
                 	ADIW R26,@1
                 	ST   X+,R30
                 	ST   X,R31
                 	.ENDM
                 
                 	.MACRO __PUTD1PMNS
                 	LDS  R26,@0
                 	LDS  R27,@0+1
                 	ADIW R26,@1
                 	RCALL __PUTDP1
                 	.ENDM
                 
                 	.MACRO __PUTB1RN
                 	MOVW R26,R@0
                 	SUBI R26,LOW(-@1)
                 	SBCI R27,HIGH(-@1)
                 	ST   X,R30
                 	.ENDM
                 
                 	.MACRO __PUTW1RN
                 	MOVW R26,R@0
                 	SUBI R26,LOW(-@1)
                 	SBCI R27,HIGH(-@1)
                 	ST   X+,R30
                 	ST   X,R31
                 	.ENDM
                 
                 	.MACRO __PUTD1RN
                 	MOVW R26,R@0
                 	SUBI R26,LOW(-@1)
                 	SBCI R27,HIGH(-@1)
                 	RCALL __PUTDP1
                 	.ENDM
                 
                 	.MACRO __PUTB1RNS
                 	MOVW R26,R@0
                 	ADIW R26,@1
                 	ST   X,R30
                 	.ENDM
                 
                 	.MACRO __PUTW1RNS
                 	MOVW R26,R@0
                 	ADIW R26,@1
                 	ST   X+,R30
                 	ST   X,R31
                 	.ENDM
                 
                 	.MACRO __PUTD1RNS
                 	MOVW R26,R@0
                 	ADIW R26,@1
                 	RCALL __PUTDP1
                 	.ENDM
                 
                 	.MACRO __PUTB1RON
                 	MOV  R26,R@0
                 	MOV  R27,R@1
                 	SUBI R26,LOW(-@2)
                 	SBCI R27,HIGH(-@2)
                 	ST   X,R30
                 	.ENDM
                 
                 	.MACRO __PUTW1RON
                 	MOV  R26,R@0
                 	MOV  R27,R@1
                 	SUBI R26,LOW(-@2)
                 	SBCI R27,HIGH(-@2)
                 	ST   X+,R30
                 	ST   X,R31
                 	.ENDM
                 
                 	.MACRO __PUTD1RON
                 	MOV  R26,R@0
                 	MOV  R27,R@1
                 	SUBI R26,LOW(-@2)
                 	SBCI R27,HIGH(-@2)
                 	RCALL __PUTDP1
                 	.ENDM
                 
                 	.MACRO __PUTB1RONS
                 	MOV  R26,R@0
                 	MOV  R27,R@1
                 	ADIW R26,@2
                 	ST   X,R30
                 	.ENDM
                 
                 	.MACRO __PUTW1RONS
                 	MOV  R26,R@0
                 	MOV  R27,R@1
                 	ADIW R26,@2
                 	ST   X+,R30
                 	ST   X,R31
                 	.ENDM
                 
                 	.MACRO __PUTD1RONS
                 	MOV  R26,R@0
                 	MOV  R27,R@1
                 	ADIW R26,@2
                 	RCALL __PUTDP1
                 	.ENDM
                 
                 
                 	.MACRO __GETB1SX
                 	MOVW R30,R28
                 	SUBI R30,LOW(-@0)
                 	SBCI R31,HIGH(-@0)
                 	LD   R30,Z
                 	.ENDM
                 
                 	.MACRO __GETB1HSX
                 	MOVW R30,R28
                 	SUBI R30,LOW(-@0)
                 	SBCI R31,HIGH(-@0)
                 	LD   R31,Z
                 	.ENDM
                 
                 	.MACRO __GETW1SX
                 	MOVW R30,R28
                 	SUBI R30,LOW(-@0)
                 	SBCI R31,HIGH(-@0)
                 	LD   R0,Z+
                 	LD   R31,Z
                 	MOV  R30,R0
                 	.ENDM
                 
                 	.MACRO __GETD1SX
                 	MOVW R30,R28
                 	SUBI R30,LOW(-@0)
                 	SBCI R31,HIGH(-@0)
                 	LD   R0,Z+
                 	LD   R1,Z+
                 	LD   R22,Z+
                 	LD   R23,Z
                 	MOVW R30,R0
                 	.ENDM
                 
                 	.MACRO __GETB2SX
                 	MOVW R26,R28
                 	SUBI R26,LOW(-@0)
                 	SBCI R27,HIGH(-@0)
                 	LD   R26,X
                 	.ENDM
                 
                 	.MACRO __GETW2SX
                 	MOVW R26,R28
                 	SUBI R26,LOW(-@0)
                 	SBCI R27,HIGH(-@0)
                 	LD   R0,X+
                 	LD   R27,X
                 	MOV  R26,R0
                 	.ENDM
                 
                 	.MACRO __GETD2SX
                 	MOVW R26,R28
                 	SUBI R26,LOW(-@0)
                 	SBCI R27,HIGH(-@0)
                 	LD   R0,X+
                 	LD   R1,X+
                 	LD   R24,X+
                 	LD   R25,X
                 	MOVW R26,R0
                 	.ENDM
                 
                 	.MACRO __GETBRSX
                 	MOVW R30,R28
                 	SUBI R30,LOW(-@1)
                 	SBCI R31,HIGH(-@1)
                 	LD   R@0,Z
                 	.ENDM
                 
                 	.MACRO __GETWRSX
                 	MOVW R30,R28
                 	SUBI R30,LOW(-@2)
                 	SBCI R31,HIGH(-@2)
                 	LD   R@0,Z+
                 	LD   R@1,Z
                 	.ENDM
                 
                 	.MACRO __LSLW8SX
                 	MOVW R30,R28
                 	SUBI R30,LOW(-@0)
                 	SBCI R31,HIGH(-@0)
                 	LD   R31,Z
                 	CLR  R30
                 	.ENDM
                 
                 	.MACRO __PUTB1SX
                 	MOVW R26,R28
                 	SUBI R26,LOW(-@0)
                 	SBCI R27,HIGH(-@0)
                 	ST   X,R30
                 	.ENDM
                 
                 	.MACRO __PUTW1SX
                 	MOVW R26,R28
                 	SUBI R26,LOW(-@0)
                 	SBCI R27,HIGH(-@0)
                 	ST   X+,R30
                 	ST   X,R31
                 	.ENDM
                 
                 	.MACRO __PUTD1SX
                 	MOVW R26,R28
                 	SUBI R26,LOW(-@0)
                 	SBCI R27,HIGH(-@0)
                 	ST   X+,R30
                 	ST   X+,R31
                 	ST   X+,R22
                 	ST   X,R23
                 	.ENDM
                 
                 	.MACRO __CLRW1SX
                 	MOVW R30,R28
                 	SUBI R30,LOW(-@0)
                 	SBCI R31,HIGH(-@0)
                 	CLR  R0
                 	ST   Z+,R0
                 	ST   Z,R0
                 	.ENDM
                 
                 	.MACRO __CLRD1SX
                 	MOVW R30,R28
                 	SUBI R30,LOW(-@0)
                 	SBCI R31,HIGH(-@0)
                 	CLR  R0
                 	ST   Z+,R0
                 	ST   Z+,R0
                 	ST   Z+,R0
                 	ST   Z,R0
                 	.ENDM
                 
                 	.MACRO __PUTB2SX
                 	MOVW R30,R28
                 	SUBI R30,LOW(-@0)
                 	SBCI R31,HIGH(-@0)
                 	ST   Z,R26
                 	.ENDM
                 
                 	.MACRO __PUTW2SX
                 	MOVW R30,R28
                 	SUBI R30,LOW(-@0)
                 	SBCI R31,HIGH(-@0)
                 	ST   Z+,R26
                 	ST   Z,R27
                 	.ENDM
                 
                 	.MACRO __PUTD2SX
                 	MOVW R30,R28
                 	SUBI R30,LOW(-@0)
                 	SBCI R31,HIGH(-@0)
                 	ST   Z+,R26
                 	ST   Z+,R27
                 	ST   Z+,R24
                 	ST   Z,R25
                 	.ENDM
                 
                 	.MACRO __PUTBSRX
                 	MOVW R30,R28
                 	SUBI R30,LOW(-@0)
                 	SBCI R31,HIGH(-@0)
                 	ST   Z,R@1
                 	.ENDM
                 
                 	.MACRO __PUTWSRX
                 	MOVW R30,R28
                 	SUBI R30,LOW(-@2)
                 	SBCI R31,HIGH(-@2)
                 	ST   Z+,R@0
                 	ST   Z,R@1
                 	.ENDM
                 
                 	.MACRO __PUTB1SNX
                 	MOVW R26,R28
                 	SUBI R26,LOW(-@0)
                 	SBCI R27,HIGH(-@0)
                 	LD   R0,X+
                 	LD   R27,X
                 	MOV  R26,R0
                 	SUBI R26,LOW(-@1)
                 	SBCI R27,HIGH(-@1)
                 	ST   X,R30
                 	.ENDM
                 
                 	.MACRO __PUTW1SNX
                 	MOVW R26,R28
                 	SUBI R26,LOW(-@0)
                 	SBCI R27,HIGH(-@0)
                 	LD   R0,X+
                 	LD   R27,X
                 	MOV  R26,R0
                 	SUBI R26,LOW(-@1)
                 	SBCI R27,HIGH(-@1)
                 	ST   X+,R30
                 	ST   X,R31
                 	.ENDM
                 
                 	.MACRO __PUTD1SNX
                 	MOVW R26,R28
                 	SUBI R26,LOW(-@0)
                 	SBCI R27,HIGH(-@0)
                 	LD   R0,X+
                 	LD   R27,X
                 	MOV  R26,R0
                 	SUBI R26,LOW(-@1)
                 	SBCI R27,HIGH(-@1)
                 	ST   X+,R30
                 	ST   X+,R31
                 	ST   X+,R22
                 	ST   X,R23
                 	.ENDM
                 
                 	.MACRO __MULBRR
                 	MULS R@0,R@1
                 	MOVW R30,R0
                 	.ENDM
                 
                 	.MACRO __MULBRRU
                 	MUL  R@0,R@1
                 	MOVW R30,R0
                 	.ENDM
                 
                 	.MACRO __MULBRR0
                 	MULS R@0,R@1
                 	.ENDM
                 
                 	.MACRO __MULBRRU0
                 	MUL  R@0,R@1
                 	.ENDM
                 
                 	.MACRO __MULBNWRU
                 	LDI  R26,@2
                 	MUL  R26,R@0
                 	MOVW R30,R0
                 	MUL  R26,R@1
                 	ADD  R31,R0
                 	.ENDM
                 
                 ;NAME DEFINITIONS FOR GLOBAL VARIABLES ALLOCATED TO REGISTERS
                 	.DEF _sec=R5
                 	.DEF _mins=R4
                 	.DEF _hour=R7
                 	.DEF _hour_a1=R6
                 	.DEF _mins_a1=R9
                 	.DEF _sec_a1=R8
                 	.DEF _hour_a2=R11
                 	.DEF _mins_a2=R10
                 	.DEF _sec_a2=R13
                 	.DEF _Timer1=R12
                 
                 	.CSEG
                 	.ORG 0x00
                 
                 ;INTERRUPT VECTORS
000000 c03c      	RJMP __RESET
000001 cffe      	RJMP 0x00
000002 cffd      	RJMP 0x00
000003 cffc      	RJMP 0x00
000004 cffb      	RJMP 0x00
000005 cffa      	RJMP 0x00
000006 cff9      	RJMP 0x00
000007 cff8      	RJMP 0x00
000008 c956      	RJMP _timer1_ovf_isr
000009 c934      	RJMP _timer0_ovf_isr
00000a cff5      	RJMP 0x00
00000b cff4      	RJMP 0x00
00000c cff3      	RJMP 0x00
00000d cff2      	RJMP 0x00
00000e cff1      	RJMP 0x00
00000f cff0      	RJMP 0x00
000010 cfef      	RJMP 0x00
000011 cfee      	RJMP 0x00
000012 cfed      	RJMP 0x00
                 
                 _0x3:
D:\My documents\Programming\Projects\Light\List\PWM.asm(1062): warning: .cseg .db misalignment - padding zero byte
000013 000a      	.DB  0xA
                 _0x4:
D:\My documents\Programming\Projects\Light\List\PWM.asm(1064): warning: .cseg .db misalignment - padding zero byte
000014 000f      	.DB  0xF
                 _0x5:
D:\My documents\Programming\Projects\Light\List\PWM.asm(1066): warning: .cseg .db misalignment - padding zero byte
000015 0010      	.DB  0x10
                 _0x6:
D:\My documents\Programming\Projects\Light\List\PWM.asm(1068): warning: .cseg .db misalignment - padding zero byte
000016 0014      	.DB  0x14
                 _0x7:
D:\My documents\Programming\Projects\Light\List\PWM.asm(1070): warning: .cseg .db misalignment - padding zero byte
000017 0015      	.DB  0x15
                 _0x8:
D:\My documents\Programming\Projects\Light\List\PWM.asm(1072): warning: .cseg .db misalignment - padding zero byte
000018 001a      	.DB  0x1A
                 _0x9:
D:\My documents\Programming\Projects\Light\List\PWM.asm(1074): warning: .cseg .db misalignment - padding zero byte
000019 001f      	.DB  0x1F
                 _0xA:
00001a 1388      	.DB  0x88,0x13
                 _0xB:
D:\My documents\Programming\Projects\Light\List\PWM.asm(1078): warning: .cseg .db misalignment - padding zero byte
00001b 0005      	.DB  0x5
                 _0xC:
D:\My documents\Programming\Projects\Light\List\PWM.asm(1080): warning: .cseg .db misalignment - padding zero byte
00001c 0019      	.DB  0x19
                 _0x200005F:
D:\My documents\Programming\Projects\Light\List\PWM.asm(1082): warning: .cseg .db misalignment - padding zero byte
00001d 0001      	.DB  0x1
                 _0x2000000:
00001e 4e2d
00001f 4e41
D:\My documents\Programming\Projects\Light\List\PWM.asm(1084): warning: .cseg .db misalignment - padding zero byte
000020 0000      	.DB  0x2D,0x4E,0x41,0x4E,0x0
                 
                 __GLOBAL_INI_TBL:
000021 0001      	.DW  0x01
000022 016c      	.DW  _adress2
000023 0026      	.DW  _0x3*2
                 
000024 0001      	.DW  0x01
000025 016d      	.DW  _adress3
000026 0028      	.DW  _0x4*2
                 
000027 0001      	.DW  0x01
000028 016e      	.DW  _adress4
000029 002a      	.DW  _0x5*2
                 
00002a 0001      	.DW  0x01
00002b 016f      	.DW  _adress7
00002c 0030      	.DW  _0x8*2
                 
00002d 0001      	.DW  0x01
00002e 0170      	.DW  _FreqT
00002f 0032      	.DW  _0x9*2
                 
000030 0002      	.DW  0x02
000031 01bd      	.DW  _Timefreq
000032 0034      	.DW  _0xA*2
                 
000033 0001      	.DW  0x01
000034 02cc      	.DW  _U9
000035 0036      	.DW  _0xB*2
                 
000036 0001      	.DW  0x01
000037 02d3      	.DW  _l_up
000038 0038      	.DW  _0xC*2
                 
000039 0001      	.DW  0x01
00003a 02d9      	.DW  __seed_G100
00003b 003a      	.DW  _0x200005F*2
                 
                 _0xFFFFFFFF:
00003c 0000      	.DW  0
                 
                 __RESET:
00003d 94f8      	CLI
00003e 27ee      	CLR  R30
00003f bbec      	OUT  EECR,R30
                 
                 ;INTERRUPT VECTORS ARE PLACED
                 ;AT THE START OF FLASH
000040 e0f1      	LDI  R31,1
000041 bffb      	OUT  GICR,R31
000042 bfeb      	OUT  GICR,R30
000043 bfe5      	OUT  MCUCR,R30
                 
                 ;DISABLE WATCHDOG
000044 e1f8      	LDI  R31,0x18
000045 bdf1      	OUT  WDTCR,R31
000046 bde1      	OUT  WDTCR,R30
                 
                 ;CLEAR R2-R14
000047 e08d      	LDI  R24,(14-2)+1
000048 e0a2      	LDI  R26,2
000049 27bb      	CLR  R27
                 __CLEAR_REG:
00004a 93ed      	ST   X+,R30
00004b 958a      	DEC  R24
00004c f7e9      	BRNE __CLEAR_REG
                 
                 ;CLEAR SRAM
00004d e080      	LDI  R24,LOW(0x400)
00004e e094      	LDI  R25,HIGH(0x400)
00004f e6a0      	LDI  R26,0x60
                 __CLEAR_SRAM:
000050 93ed      	ST   X+,R30
000051 9701      	SBIW R24,1
000052 f7e9      	BRNE __CLEAR_SRAM
                 
                 ;GLOBAL VARIABLES INITIALIZATION
000053 e4e2      	LDI  R30,LOW(__GLOBAL_INI_TBL*2)
000054 e0f0      	LDI  R31,HIGH(__GLOBAL_INI_TBL*2)
                 __GLOBAL_INI_NEXT:
000055 9185      	LPM  R24,Z+
000056 9195      	LPM  R25,Z+
000057 9700      	SBIW R24,0
000058 f061      	BREQ __GLOBAL_INI_END
000059 91a5      	LPM  R26,Z+
00005a 91b5      	LPM  R27,Z+
00005b 9005      	LPM  R0,Z+
00005c 9015      	LPM  R1,Z+
00005d 01bf      	MOVW R22,R30
00005e 01f0      	MOVW R30,R0
                 __GLOBAL_INI_LOOP:
00005f 9005      	LPM  R0,Z+
000060 920d      	ST   X+,R0
000061 9701      	SBIW R24,1
000062 f7e1      	BRNE __GLOBAL_INI_LOOP
000063 01fb      	MOVW R30,R22
000064 cff0      	RJMP __GLOBAL_INI_NEXT
                 __GLOBAL_INI_END:
                 
                 ;STACK POINTER INITIALIZATION
000065 e5ef      	LDI  R30,LOW(0x45F)
000066 bfed      	OUT  SPL,R30
000067 e0e4      	LDI  R30,HIGH(0x45F)
000068 bfee      	OUT  SPH,R30
                 
                 ;DATA STACK POINTER INITIALIZATION
000069 e6c0      	LDI  R28,LOW(0x160)
00006a e0d1      	LDI  R29,HIGH(0x160)
                 
00006b c8f4      	RJMP _main
                 
                 	.ESEG
                 	.ORG 0
                 
                 	.DSEG
                 	.ORG 0x160
                 
                 	.CSEG
                 ;#include <mega8.h>
                 	#ifndef __SLEEP_DEFINED__
                 	#define __SLEEP_DEFINED__
                 	.EQU __se_bit=0x80
                 	.EQU __sm_mask=0x70
                 	.EQU __sm_powerdown=0x20
                 	.EQU __sm_powersave=0x30
                 	.EQU __sm_standby=0x60
                 	.EQU __sm_ext_standby=0x70
                 	.EQU __sm_adc_noise_red=0x10
                 	.SET power_ctrl_reg=mcucr
                 	#endif
                 ;#include <delay.h>
                 ;//#include <stdio.h>
                 ;#include <stdlib.h>
                 ;
                 ;unsigned char sec,mins,hour,hour_a1,mins_a1,sec_a1,hour_a2,mins_a2,sec_a2;
                 ;//eeprom unsigned long int Push1=-19095,Push2=-19098;
                 ;int d=0,d1=0,d2=0,d3=0;
                 ;//unsigned char Timer1,bit1,bit0,bit01,bit10,shiftd,Check_1,adress2=5,adress3=9,adress4=11,adress5=15,adress6=17,adress7=26,FreqT=29;//частота приема ИК
                 ;unsigned char Timer1,bit1,bit0,bit01,bit10,shiftd,Check_1,adress2=10,adress3=15,adress4=16,adress5=20,adress6=21,adress7=26,FreqT=31;//частота приема ИК
                 
                 	.DSEG
                 ;
                 ;unsigned char U1=0,U2[8][4],sig1[8][4],U3=0; // для PWM
                 ;int Timer_3,Timer_6,Timer_9,Number[3],Timefreq=5000;//частота времени
                 ;unsigned char U4,bitEr1,bitEr0,Timer_1,Timer_2,Timer_4,Timer_7,Timer_8,TD=0,n,n1[255],n2,n3,IR_Tr=0;
                 ;unsigned char PWM_Susp=0,Clock_Susp=0,U5,U6=0,U7=0,U8=0,U9=5,Bee,n2,Dig1,Dig2,Num2[3],l_up=25,l_dwn=0,dig_a,dig_b,dig_c;
                 ;char adc1=0;
                 ;bit U10=0,IR_1=0,IR_2=0,IR_S=0,L_ON;
                 ;#include <LED-Driver.c>
                 ;void PWM1(){
                 ; 0000 0012 void PWM1(){
                 
                 	.CSEG
                 _PWM1:
                 ;
                 ;Timer_1++;
00006c 91e0 01c2 	LDS  R30,_Timer_1
00006e 5fef      	SUBI R30,-LOW(1)
00006f 93e0 01c2 	STS  _Timer_1,R30
                 ;
                 ;if (Timer_1==17){Timer_1=1;Timer_2++;} //скорость обновления PWM модулирования, значение меняется с частотой
000071 91a0 01c2 	LDS  R26,_Timer_1
000073 31a1      	CPI  R26,LOW(0x11)
000074 f441      	BRNE _0xD
000075 e0e1      	LDI  R30,LOW(1)
000076 93e0 01c2 	STS  _Timer_1,R30
000078 91e0 01c3 	LDS  R30,_Timer_2
00007a 5fef      	SUBI R30,-LOW(1)
00007b 93e0 01c3 	STS  _Timer_2,R30
                 ;
                 ;if (Timer_1<sig1[0][n2]){U1=1;}else{U1=0;} // sig1 + задержка драйвер для лампы 0 - значение 1й переменной
                 _0xD:
00007d 91e0 02c7 	LDS  R30,_n2
00007f e0f0      	LDI  R31,0
000080 56ee      	SUBI R30,LOW(-_sig1)
000081 4ffe      	SBCI R31,HIGH(-_sig1)
000082 81e0      	LD   R30,Z
000083 91a0 01c2 	LDS  R26,_Timer_1
000085 17ae      	CP   R26,R30
000086 f410      	BRSH _0xE
000087 e0e1      	LDI  R30,LOW(1)
000088 c001      	RJMP _0xBB
                 _0xE:
000089 e0e0      	LDI  R30,LOW(0)
                 _0xBB:
00008a 93e0 0171 	STS  _U1,R30
                 ;if (U1==1){PORTB|=0b00000001;} //x3,y4
00008c 91a0 0171 	LDS  R26,_U1
00008e 30a1      	CPI  R26,LOW(0x1)
00008f f421      	BRNE _0x10
000090 b3e8      	IN   R30,0x18
000091 e0f0      	LDI  R31,0
000092 60e1      	ORI  R30,1
000093 bbe8      	OUT  0x18,R30
                 ;if (U1==0){PORTB&=~0b00000001;}
                 _0x10:
000094 91e0 0171 	LDS  R30,_U1
000096 30e0      	CPI  R30,0
000097 f421      	BRNE _0x11
000098 b3e8      	IN   R30,0x18
000099 e0f0      	LDI  R31,0
00009a 7fee      	ANDI R30,LOW(0xFFFE)
00009b bbe8      	OUT  0x18,R30
                 ;
                 ;if (Timer_1<sig1[1][n2]){U1=2;}else{U1=3;} // sig1 + задержка
                 _0x11:
                +
00009c e9a6     +LDI R26 , LOW ( _sig1 + 4 )
00009d e0b1     +LDI R27 , HIGH ( _sig1 + 4 )
                 	__POINTW2MN _sig1,4
00009e 91e0 02c7 	LDS  R30,_n2
0000a0 e0f0      	LDI  R31,0
0000a1 0fae      	ADD  R26,R30
0000a2 1fbf      	ADC  R27,R31
0000a3 91ec      	LD   R30,X
0000a4 91a0 01c2 	LDS  R26,_Timer_1
0000a6 17ae      	CP   R26,R30
0000a7 f410      	BRSH _0x12
0000a8 e0e2      	LDI  R30,LOW(2)
0000a9 c001      	RJMP _0xBC
                 _0x12:
0000aa e0e3      	LDI  R30,LOW(3)
                 _0xBC:
0000ab 93e0 0171 	STS  _U1,R30
                 ;if (U1==2){PORTB|=0b00000010;} //x3,y3
0000ad 91a0 0171 	LDS  R26,_U1
0000af 30a2      	CPI  R26,LOW(0x2)
0000b0 f421      	BRNE _0x14
0000b1 b3e8      	IN   R30,0x18
0000b2 e0f0      	LDI  R31,0
0000b3 60e2      	ORI  R30,2
0000b4 bbe8      	OUT  0x18,R30
                 ;if (U1==3){PORTB&=~0b00000010;}
                 _0x14:
0000b5 91a0 0171 	LDS  R26,_U1
0000b7 30a3      	CPI  R26,LOW(0x3)
0000b8 f421      	BRNE _0x15
0000b9 b3e8      	IN   R30,0x18
0000ba e0f0      	LDI  R31,0
0000bb 7fed      	ANDI R30,LOW(0xFFFD)
0000bc bbe8      	OUT  0x18,R30
                 ;
                 ;if (Timer_1<sig1[2][n2]){U1=4;}else{U1=5;} // sig1 + задержка
                 _0x15:
                +
0000bd e9aa     +LDI R26 , LOW ( _sig1 + 8 )
0000be e0b1     +LDI R27 , HIGH ( _sig1 + 8 )
                 	__POINTW2MN _sig1,8
0000bf 91e0 02c7 	LDS  R30,_n2
0000c1 e0f0      	LDI  R31,0
0000c2 0fae      	ADD  R26,R30
0000c3 1fbf      	ADC  R27,R31
0000c4 91ec      	LD   R30,X
0000c5 91a0 01c2 	LDS  R26,_Timer_1
0000c7 17ae      	CP   R26,R30
0000c8 f410      	BRSH _0x16
0000c9 e0e4      	LDI  R30,LOW(4)
0000ca c001      	RJMP _0xBD
                 _0x16:
0000cb e0e5      	LDI  R30,LOW(5)
                 _0xBD:
0000cc 93e0 0171 	STS  _U1,R30
                 ;if (U1==4){PORTB|=0b00000100;} //x4,y2
0000ce 91a0 0171 	LDS  R26,_U1
0000d0 30a4      	CPI  R26,LOW(0x4)
0000d1 f421      	BRNE _0x18
0000d2 b3e8      	IN   R30,0x18
0000d3 e0f0      	LDI  R31,0
0000d4 60e4      	ORI  R30,4
0000d5 bbe8      	OUT  0x18,R30
                 ;if (U1==5){PORTB&=~0b00000100;}
                 _0x18:
0000d6 91a0 0171 	LDS  R26,_U1
0000d8 30a5      	CPI  R26,LOW(0x5)
0000d9 f421      	BRNE _0x19
0000da b3e8      	IN   R30,0x18
0000db e0f0      	LDI  R31,0
0000dc 7feb      	ANDI R30,LOW(0xFFFB)
0000dd bbe8      	OUT  0x18,R30
                 ;
                 ;if (Timer_1<sig1[3][n2]){U1=6;}else{U1=7;} // sig1 + задержка
                 _0x19:
                +
0000de e9ae     +LDI R26 , LOW ( _sig1 + 12 )
0000df e0b1     +LDI R27 , HIGH ( _sig1 + 12 )
                 	__POINTW2MN _sig1,12
0000e0 91e0 02c7 	LDS  R30,_n2
0000e2 e0f0      	LDI  R31,0
0000e3 0fae      	ADD  R26,R30
0000e4 1fbf      	ADC  R27,R31
0000e5 91ec      	LD   R30,X
0000e6 91a0 01c2 	LDS  R26,_Timer_1
0000e8 17ae      	CP   R26,R30
0000e9 f410      	BRSH _0x1A
0000ea e0e6      	LDI  R30,LOW(6)
0000eb c001      	RJMP _0xBE
                 _0x1A:
0000ec e0e7      	LDI  R30,LOW(7)
                 _0xBE:
0000ed 93e0 0171 	STS  _U1,R30
                 ;if (U1==6){PORTB|=0b00010000;}  //x3,y1
0000ef 91a0 0171 	LDS  R26,_U1
0000f1 30a6      	CPI  R26,LOW(0x6)
0000f2 f421      	BRNE _0x1C
0000f3 b3e8      	IN   R30,0x18
0000f4 e0f0      	LDI  R31,0
0000f5 61e0      	ORI  R30,0x10
0000f6 bbe8      	OUT  0x18,R30
                 ;if (U1==7){PORTB&=~0b00010000;}
                 _0x1C:
0000f7 91a0 0171 	LDS  R26,_U1
0000f9 30a7      	CPI  R26,LOW(0x7)
0000fa f421      	BRNE _0x1D
0000fb b3e8      	IN   R30,0x18
0000fc e0f0      	LDI  R31,0
0000fd 7eef      	ANDI R30,LOW(0xFFEF)
0000fe bbe8      	OUT  0x18,R30
                 ;
                 ;if (Timer_1<sig1[4][n2]){U1=8;}else{U1=9;} // sig1 + задержка
                 _0x1D:
                +
0000ff eaa2     +LDI R26 , LOW ( _sig1 + 16 )
000100 e0b1     +LDI R27 , HIGH ( _sig1 + 16 )
                 	__POINTW2MN _sig1,16
000101 91e0 02c7 	LDS  R30,_n2
000103 e0f0      	LDI  R31,0
000104 0fae      	ADD  R26,R30
000105 1fbf      	ADC  R27,R31
000106 91ec      	LD   R30,X
000107 91a0 01c2 	LDS  R26,_Timer_1
000109 17ae      	CP   R26,R30
00010a f410      	BRSH _0x1E
00010b e0e8      	LDI  R30,LOW(8)
00010c c001      	RJMP _0xBF
                 _0x1E:
00010d e0e9      	LDI  R30,LOW(9)
                 _0xBF:
00010e 93e0 0171 	STS  _U1,R30
                 ;if (U1==8){PORTB|=0b00100000;}  //x4,y1
000110 91a0 0171 	LDS  R26,_U1
000112 30a8      	CPI  R26,LOW(0x8)
000113 f421      	BRNE _0x20
000114 b3e8      	IN   R30,0x18
000115 e0f0      	LDI  R31,0
000116 62e0      	ORI  R30,0x20
000117 bbe8      	OUT  0x18,R30
                 ;if (U1==9){PORTB&=~0b00100000;}
                 _0x20:
000118 91a0 0171 	LDS  R26,_U1
00011a 30a9      	CPI  R26,LOW(0x9)
00011b f421      	BRNE _0x21
00011c b3e8      	IN   R30,0x18
00011d e0f0      	LDI  R31,0
00011e 7def      	ANDI R30,LOW(0xFFDF)
00011f bbe8      	OUT  0x18,R30
                 ;
                 ;if (Timer_1<sig1[5][n2]){U1=10;}else{U1=11;} // sig1 + задержка
                 _0x21:
                +
000120 eaa6     +LDI R26 , LOW ( _sig1 + 20 )
000121 e0b1     +LDI R27 , HIGH ( _sig1 + 20 )
                 	__POINTW2MN _sig1,20
000122 91e0 02c7 	LDS  R30,_n2
000124 e0f0      	LDI  R31,0
000125 0fae      	ADD  R26,R30
000126 1fbf      	ADC  R27,R31
000127 91ec      	LD   R30,X
000128 91a0 01c2 	LDS  R26,_Timer_1
00012a 17ae      	CP   R26,R30
00012b f410      	BRSH _0x22
00012c e0ea      	LDI  R30,LOW(10)
00012d c001      	RJMP _0xC0
                 _0x22:
00012e e0eb      	LDI  R30,LOW(11)
                 _0xC0:
00012f 93e0 0171 	STS  _U1,R30
                 ;if (U1==10){PORTB|=0b01000000;}  //x4,y4
000131 91a0 0171 	LDS  R26,_U1
000133 30aa      	CPI  R26,LOW(0xA)
000134 f421      	BRNE _0x24
000135 b3e8      	IN   R30,0x18
000136 e0f0      	LDI  R31,0
000137 64e0      	ORI  R30,0x40
000138 bbe8      	OUT  0x18,R30
                 ;if (U1==11){PORTB&=~0b01000000;}
                 _0x24:
000139 91a0 0171 	LDS  R26,_U1
00013b 30ab      	CPI  R26,LOW(0xB)
00013c f421      	BRNE _0x25
00013d b3e8      	IN   R30,0x18
00013e e0f0      	LDI  R31,0
00013f 7bef      	ANDI R30,LOW(0xFFBF)
000140 bbe8      	OUT  0x18,R30
                 ;
                 ;if (Timer_1<sig1[6][n2]){U1=12;}else{U1=13;} // sig1 + задержка
                 _0x25:
                +
000141 eaaa     +LDI R26 , LOW ( _sig1 + 24 )
000142 e0b1     +LDI R27 , HIGH ( _sig1 + 24 )
                 	__POINTW2MN _sig1,24
000143 91e0 02c7 	LDS  R30,_n2
000145 e0f0      	LDI  R31,0
000146 0fae      	ADD  R26,R30
000147 1fbf      	ADC  R27,R31
000148 91ec      	LD   R30,X
000149 91a0 01c2 	LDS  R26,_Timer_1
00014b 17ae      	CP   R26,R30
00014c f410      	BRSH _0x26
00014d e0ec      	LDI  R30,LOW(12)
00014e c001      	RJMP _0xC1
                 _0x26:
00014f e0ed      	LDI  R30,LOW(13)
                 _0xC1:
000150 93e0 0171 	STS  _U1,R30
                 ;if (U1==12){PORTB|=0b10000000;} //x3,y2
000152 91a0 0171 	LDS  R26,_U1
000154 30ac      	CPI  R26,LOW(0xC)
000155 f421      	BRNE _0x28
000156 b3e8      	IN   R30,0x18
000157 e0f0      	LDI  R31,0
000158 68e0      	ORI  R30,0x80
000159 bbe8      	OUT  0x18,R30
                 ;if (U1==13){PORTB&=~0b10000000;}
                 _0x28:
00015a 91a0 0171 	LDS  R26,_U1
00015c 30ad      	CPI  R26,LOW(0xD)
00015d f421      	BRNE _0x29
00015e b3e8      	IN   R30,0x18
00015f e0f0      	LDI  R31,0
000160 77ef      	ANDI R30,LOW(0xFF7F)
000161 bbe8      	OUT  0x18,R30
                 ;
                 ;if (Timer_1<sig1[7][n2]){U1=14;}else{U1=15;} // sig1 + задержка
                 _0x29:
                +
000162 eaae     +LDI R26 , LOW ( _sig1 + 28 )
000163 e0b1     +LDI R27 , HIGH ( _sig1 + 28 )
                 	__POINTW2MN _sig1,28
000164 91e0 02c7 	LDS  R30,_n2
000166 e0f0      	LDI  R31,0
000167 0fae      	ADD  R26,R30
000168 1fbf      	ADC  R27,R31
000169 91ec      	LD   R30,X
00016a 91a0 01c2 	LDS  R26,_Timer_1
00016c 17ae      	CP   R26,R30
00016d f410      	BRSH _0x2A
00016e e0ee      	LDI  R30,LOW(14)
00016f c001      	RJMP _0xC2
                 _0x2A:
000170 e0ef      	LDI  R30,LOW(15)
                 _0xC2:
000171 93e0 0171 	STS  _U1,R30
                 ;if (U1==14){PORTB|=0b00001000;} //x4,y2
000173 91a0 0171 	LDS  R26,_U1
000175 30ae      	CPI  R26,LOW(0xE)
000176 f421      	BRNE _0x2C
000177 b3e8      	IN   R30,0x18
000178 e0f0      	LDI  R31,0
000179 60e8      	ORI  R30,8
00017a bbe8      	OUT  0x18,R30
                 ;if (U1==15){PORTB&=~0b00001000;}
                 _0x2C:
00017b 91a0 0171 	LDS  R26,_U1
00017d 30af      	CPI  R26,LOW(0xF)
00017e f421      	BRNE _0x2D
00017f b3e8      	IN   R30,0x18
000180 e0f0      	LDI  R31,0
000181 7fe7      	ANDI R30,LOW(0xFFF7)
000182 bbe8      	OUT  0x18,R30
                 ;
                 ;
                 ;if (Timer_2>=U9){ //скорость затухания
                 _0x2D:
000183 91e0 02cc 	LDS  R30,_U9
000185 91a0 01c3 	LDS  R26,_Timer_2
000187 17ae      	CP   R26,R30
000188 f408      	BRSH PC+2
000189 c0a8      	RJMP _0x2E
                 ;
                 ;for (U3=0;U3<=7;U3++){
00018a e0e0      	LDI  R30,LOW(0)
00018b 93e0 01b2 	STS  _U3,R30
                 _0x30:
00018d 91a0 01b2 	LDS  R26,_U3
00018f 30a8      	CPI  R26,LOW(0x8)
000190 f008      	BRLO PC+2
000191 c09d      	RJMP _0x31
                 ;
                 ;if (U2[U3][n2]==1) {if(sig1[U3][n2]<l_up){sig1[U3][n2]=sig1[U3][n2]+1;}}
000192 91e0 01b2 	LDS  R30,_U3
000194 e7a2      	LDI  R26,LOW(_U2)
000195 e0b1      	LDI  R27,HIGH(_U2)
000196 e0f0      	LDI  R31,0
000197 d82a      	RCALL __LSLW2
000198 0fae      	ADD  R26,R30
000199 1fbf      	ADC  R27,R31
00019a 91e0 02c7 	LDS  R30,_n2
00019c e0f0      	LDI  R31,0
00019d 0fae      	ADD  R26,R30
00019e 1fbf      	ADC  R27,R31
00019f 91ac      	LD   R26,X
0001a0 30a1      	CPI  R26,LOW(0x1)
0001a1 f009      	BREQ PC+2
0001a2 c032      	RJMP _0x32
0001a3 91e0 01b2 	LDS  R30,_U3
0001a5 e9a2      	LDI  R26,LOW(_sig1)
0001a6 e0b1      	LDI  R27,HIGH(_sig1)
0001a7 e0f0      	LDI  R31,0
0001a8 d819      	RCALL __LSLW2
0001a9 0fae      	ADD  R26,R30
0001aa 1fbf      	ADC  R27,R31
0001ab 91e0 02c7 	LDS  R30,_n2
0001ad e0f0      	LDI  R31,0
0001ae 0fae      	ADD  R26,R30
0001af 1fbf      	ADC  R27,R31
0001b0 91ac      	LD   R26,X
0001b1 91e0 02d3 	LDS  R30,_l_up
0001b3 17ae      	CP   R26,R30
0001b4 f500      	BRSH _0x33
0001b5 91e0 01b2 	LDS  R30,_U3
0001b7 e9a2      	LDI  R26,LOW(_sig1)
0001b8 e0b1      	LDI  R27,HIGH(_sig1)
0001b9 e0f0      	LDI  R31,0
0001ba d807      	RCALL __LSLW2
0001bb 0fae      	ADD  R26,R30
0001bc 1fbf      	ADC  R27,R31
0001bd 91e0 02c7 	LDS  R30,_n2
0001bf e0f0      	LDI  R31,0
0001c0 0fea      	ADD  R30,R26
0001c1 1ffb      	ADC  R31,R27
0001c2 010f      	MOVW R0,R30
0001c3 91e0 01b2 	LDS  R30,_U3
0001c5 e9a2      	LDI  R26,LOW(_sig1)
0001c6 e0b1      	LDI  R27,HIGH(_sig1)
0001c7 e0f0      	LDI  R31,0
0001c8 d7f9      	RCALL __LSLW2
0001c9 0fae      	ADD  R26,R30
0001ca 1fbf      	ADC  R27,R31
0001cb 91e0 02c7 	LDS  R30,_n2
0001cd e0f0      	LDI  R31,0
0001ce 0fae      	ADD  R26,R30
0001cf 1fbf      	ADC  R27,R31
0001d0 91ec      	LD   R30,X
0001d1 e0f0      	LDI  R31,0
0001d2 9631      	ADIW R30,1
0001d3 01d0      	MOVW R26,R0
0001d4 93ec      	ST   X,R30
                 _0x33:
                 ;if (U2[U3][n2]==0) {if(sig1[U3][n2]>l_dwn){sig1[U3][n2]=sig1[U3][n2]-1;}else{sig1[U3][n2]=l_dwn;}}
                 _0x32:
0001d5 91e0 01b2 	LDS  R30,_U3
0001d7 e7a2      	LDI  R26,LOW(_U2)
0001d8 e0b1      	LDI  R27,HIGH(_U2)
0001d9 e0f0      	LDI  R31,0
0001da d7e7      	RCALL __LSLW2
0001db 0fae      	ADD  R26,R30
0001dc 1fbf      	ADC  R27,R31
0001dd 91e0 02c7 	LDS  R30,_n2
0001df e0f0      	LDI  R31,0
0001e0 0fae      	ADD  R26,R30
0001e1 1fbf      	ADC  R27,R31
0001e2 91ec      	LD   R30,X
0001e3 30e0      	CPI  R30,0
0001e4 f009      	BREQ PC+2
0001e5 c043      	RJMP _0x34
0001e6 91e0 01b2 	LDS  R30,_U3
0001e8 e9a2      	LDI  R26,LOW(_sig1)
0001e9 e0b1      	LDI  R27,HIGH(_sig1)
0001ea e0f0      	LDI  R31,0
0001eb d7d6      	RCALL __LSLW2
0001ec 0fae      	ADD  R26,R30
0001ed 1fbf      	ADC  R27,R31
0001ee 91e0 02c7 	LDS  R30,_n2
0001f0 e0f0      	LDI  R31,0
0001f1 0fae      	ADD  R26,R30
0001f2 1fbf      	ADC  R27,R31
0001f3 91ac      	LD   R26,X
0001f4 91e0 02d4 	LDS  R30,_l_dwn
0001f6 17ea      	CP   R30,R26
0001f7 f508      	BRSH _0x35
0001f8 91e0 01b2 	LDS  R30,_U3
0001fa e9a2      	LDI  R26,LOW(_sig1)
0001fb e0b1      	LDI  R27,HIGH(_sig1)
0001fc e0f0      	LDI  R31,0
0001fd d7c4      	RCALL __LSLW2
0001fe 0fae      	ADD  R26,R30
0001ff 1fbf      	ADC  R27,R31
000200 91e0 02c7 	LDS  R30,_n2
000202 e0f0      	LDI  R31,0
000203 0fea      	ADD  R30,R26
000204 1ffb      	ADC  R31,R27
000205 010f      	MOVW R0,R30
000206 91e0 01b2 	LDS  R30,_U3
000208 e9a2      	LDI  R26,LOW(_sig1)
000209 e0b1      	LDI  R27,HIGH(_sig1)
00020a e0f0      	LDI  R31,0
00020b d7b6      	RCALL __LSLW2
00020c 0fae      	ADD  R26,R30
00020d 1fbf      	ADC  R27,R31
00020e 91e0 02c7 	LDS  R30,_n2
000210 e0f0      	LDI  R31,0
000211 0fae      	ADD  R26,R30
000212 1fbf      	ADC  R27,R31
000213 91ec      	LD   R30,X
000214 e0f0      	LDI  R31,0
000215 9731      	SBIW R30,1
000216 01d0      	MOVW R26,R0
000217 93ec      	ST   X,R30
000218 c010      	RJMP _0x36
                 _0x35:
000219 91e0 01b2 	LDS  R30,_U3
00021b e9a2      	LDI  R26,LOW(_sig1)
00021c e0b1      	LDI  R27,HIGH(_sig1)
00021d e0f0      	LDI  R31,0
00021e d7a3      	RCALL __LSLW2
00021f 0fae      	ADD  R26,R30
000220 1fbf      	ADC  R27,R31
000221 91e0 02c7 	LDS  R30,_n2
000223 e0f0      	LDI  R31,0
000224 0fea      	ADD  R30,R26
000225 1ffb      	ADC  R31,R27
000226 91a0 02d4 	LDS  R26,_l_dwn
000228 83a0      	STD  Z+0,R26
                 _0x36:
                 ;//if (U2[U3][n2]==0) {if(sig1[U3][n2]>2){sig1[U3][n2]=sig1[U3][n2]-1;}else{sig1[U3][n2]=2;}}
                 ;
                 ;}
                 _0x34:
000229 91e0 01b2 	LDS  R30,_U3
00022b 5fef      	SUBI R30,-LOW(1)
00022c 93e0 01b2 	STS  _U3,R30
00022e cf5e      	RJMP _0x30
                 _0x31:
                 ;Timer_2=0;}
00022f e0e0      	LDI  R30,LOW(0)
000230 93e0 01c3 	STS  _Timer_2,R30
                 ;}
                 _0x2E:
000232 9508      	RET
                 ;
                 ;void Dig_1(){
                 _Dig_1:
                 ;switch (Dig1){
000233 91e0 02ce 	LDS  R30,_Dig1
000235 e0f0      	LDI  R31,0
                 ;case 1: {U2[3][n2]=1;break;}
000236 30e1      	CPI  R30,LOW(0x1)
000237 e0a0      	LDI  R26,HIGH(0x1)
000238 07fa      	CPC  R31,R26
000239 f451      	BRNE _0x3A
                +
00023a e7ae     +LDI R26 , LOW ( _U2 + 12 )
00023b e0b1     +LDI R27 , HIGH ( _U2 + 12 )
                 	__POINTW2MN _U2,12
00023c 91e0 02c7 	LDS  R30,_n2
00023e e0f0      	LDI  R31,0
00023f 0fae      	ADD  R26,R30
000240 1fbf      	ADC  R27,R31
000241 e0e1      	LDI  R30,LOW(1)
000242 93ec      	ST   X,R30
000243 c0c8      	RJMP _0x39
                 ;case 2: {U2[6][n2]=1;break;}
                 _0x3A:
000244 30e2      	CPI  R30,LOW(0x2)
000245 e0a0      	LDI  R26,HIGH(0x2)
000246 07fa      	CPC  R31,R26
000247 f451      	BRNE _0x3B
                +
000248 e8aa     +LDI R26 , LOW ( _U2 + 24 )
000249 e0b1     +LDI R27 , HIGH ( _U2 + 24 )
                 	__POINTW2MN _U2,24
00024a 91e0 02c7 	LDS  R30,_n2
00024c e0f0      	LDI  R31,0
00024d 0fae      	ADD  R26,R30
00024e 1fbf      	ADC  R27,R31
00024f e0e1      	LDI  R30,LOW(1)
000250 93ec      	ST   X,R30
000251 c0ba      	RJMP _0x39
                 ;case 3: {U2[6][n2]=1;U2[3][n2]=1;break;}
                 _0x3B:
000252 30e3      	CPI  R30,LOW(0x3)
000253 e0a0      	LDI  R26,HIGH(0x3)
000254 07fa      	CPC  R31,R26
000255 f499      	BRNE _0x3C
                +
000256 e8aa     +LDI R26 , LOW ( _U2 + 24 )
000257 e0b1     +LDI R27 , HIGH ( _U2 + 24 )
                 	__POINTW2MN _U2,24
000258 91e0 02c7 	LDS  R30,_n2
00025a e0f0      	LDI  R31,0
00025b 0fae      	ADD  R26,R30
00025c 1fbf      	ADC  R27,R31
00025d e0e1      	LDI  R30,LOW(1)
00025e 93ec      	ST   X,R30
                +
00025f e7ae     +LDI R26 , LOW ( _U2 + 12 )
000260 e0b1     +LDI R27 , HIGH ( _U2 + 12 )
                 	__POINTW2MN _U2,12
000261 91e0 02c7 	LDS  R30,_n2
000263 e0f0      	LDI  R31,0
000264 0fae      	ADD  R26,R30
000265 1fbf      	ADC  R27,R31
000266 e0e1      	LDI  R30,LOW(1)
000267 93ec      	ST   X,R30
000268 c0a3      	RJMP _0x39
                 ;case 4: {U2[1][n2]=1;break;}
                 _0x3C:
000269 30e4      	CPI  R30,LOW(0x4)
00026a e0a0      	LDI  R26,HIGH(0x4)
00026b 07fa      	CPC  R31,R26
00026c f451      	BRNE _0x3D
                +
00026d e7a6     +LDI R26 , LOW ( _U2 + 4 )
00026e e0b1     +LDI R27 , HIGH ( _U2 + 4 )
                 	__POINTW2MN _U2,4
00026f 91e0 02c7 	LDS  R30,_n2
000271 e0f0      	LDI  R31,0
000272 0fae      	ADD  R26,R30
000273 1fbf      	ADC  R27,R31
000274 e0e1      	LDI  R30,LOW(1)
000275 93ec      	ST   X,R30
000276 c095      	RJMP _0x39
                 ;case 5: {U2[1][n2]=1;U2[3][n2]=1;break;}
                 _0x3D:
000277 30e5      	CPI  R30,LOW(0x5)
000278 e0a0      	LDI  R26,HIGH(0x5)
000279 07fa      	CPC  R31,R26
00027a f499      	BRNE _0x3E
                +
00027b e7a6     +LDI R26 , LOW ( _U2 + 4 )
00027c e0b1     +LDI R27 , HIGH ( _U2 + 4 )
                 	__POINTW2MN _U2,4
00027d 91e0 02c7 	LDS  R30,_n2
00027f e0f0      	LDI  R31,0
000280 0fae      	ADD  R26,R30
000281 1fbf      	ADC  R27,R31
000282 e0e1      	LDI  R30,LOW(1)
000283 93ec      	ST   X,R30
                +
000284 e7ae     +LDI R26 , LOW ( _U2 + 12 )
000285 e0b1     +LDI R27 , HIGH ( _U2 + 12 )
                 	__POINTW2MN _U2,12
000286 91e0 02c7 	LDS  R30,_n2
000288 e0f0      	LDI  R31,0
000289 0fae      	ADD  R26,R30
00028a 1fbf      	ADC  R27,R31
00028b e0e1      	LDI  R30,LOW(1)
00028c 93ec      	ST   X,R30
00028d c07e      	RJMP _0x39
                 ;case 6: {U2[1][n2]=1;U2[6][n2]=1;break;}
                 _0x3E:
00028e 30e6      	CPI  R30,LOW(0x6)
00028f e0a0      	LDI  R26,HIGH(0x6)
000290 07fa      	CPC  R31,R26
000291 f499      	BRNE _0x3F
                +
000292 e7a6     +LDI R26 , LOW ( _U2 + 4 )
000293 e0b1     +LDI R27 , HIGH ( _U2 + 4 )
                 	__POINTW2MN _U2,4
000294 91e0 02c7 	LDS  R30,_n2
000296 e0f0      	LDI  R31,0
000297 0fae      	ADD  R26,R30
000298 1fbf      	ADC  R27,R31
000299 e0e1      	LDI  R30,LOW(1)
00029a 93ec      	ST   X,R30
                +
00029b e8aa     +LDI R26 , LOW ( _U2 + 24 )
00029c e0b1     +LDI R27 , HIGH ( _U2 + 24 )
                 	__POINTW2MN _U2,24
00029d 91e0 02c7 	LDS  R30,_n2
00029f e0f0      	LDI  R31,0
0002a0 0fae      	ADD  R26,R30
0002a1 1fbf      	ADC  R27,R31
0002a2 e0e1      	LDI  R30,LOW(1)
0002a3 93ec      	ST   X,R30
0002a4 c067      	RJMP _0x39
                 ;case 7: {U2[1][n2]=1;U2[6][n2]=1;U2[3][n2]=1;break;}
                 _0x3F:
0002a5 30e7      	CPI  R30,LOW(0x7)
0002a6 e0a0      	LDI  R26,HIGH(0x7)
0002a7 07fa      	CPC  R31,R26
0002a8 f4e1      	BRNE _0x40
                +
0002a9 e7a6     +LDI R26 , LOW ( _U2 + 4 )
0002aa e0b1     +LDI R27 , HIGH ( _U2 + 4 )
                 	__POINTW2MN _U2,4
0002ab 91e0 02c7 	LDS  R30,_n2
0002ad e0f0      	LDI  R31,0
0002ae 0fae      	ADD  R26,R30
0002af 1fbf      	ADC  R27,R31
0002b0 e0e1      	LDI  R30,LOW(1)
0002b1 93ec      	ST   X,R30
                +
0002b2 e8aa     +LDI R26 , LOW ( _U2 + 24 )
0002b3 e0b1     +LDI R27 , HIGH ( _U2 + 24 )
                 	__POINTW2MN _U2,24
0002b4 91e0 02c7 	LDS  R30,_n2
0002b6 e0f0      	LDI  R31,0
0002b7 0fae      	ADD  R26,R30
0002b8 1fbf      	ADC  R27,R31
0002b9 e0e1      	LDI  R30,LOW(1)
0002ba 93ec      	ST   X,R30
                +
0002bb e7ae     +LDI R26 , LOW ( _U2 + 12 )
0002bc e0b1     +LDI R27 , HIGH ( _U2 + 12 )
                 	__POINTW2MN _U2,12
0002bd 91e0 02c7 	LDS  R30,_n2
0002bf e0f0      	LDI  R31,0
0002c0 0fae      	ADD  R26,R30
0002c1 1fbf      	ADC  R27,R31
0002c2 e0e1      	LDI  R30,LOW(1)
0002c3 93ec      	ST   X,R30
0002c4 c047      	RJMP _0x39
                 ;case 8: {U2[0][n2]=1;break;}
                 _0x40:
0002c5 30e8      	CPI  R30,LOW(0x8)
0002c6 e0a0      	LDI  R26,HIGH(0x8)
0002c7 07fa      	CPC  R31,R26
0002c8 f441      	BRNE _0x41
0002c9 91e0 02c7 	LDS  R30,_n2
0002cb e0f0      	LDI  R31,0
0002cc 58ee      	SUBI R30,LOW(-_U2)
0002cd 4ffe      	SBCI R31,HIGH(-_U2)
0002ce e0a1      	LDI  R26,LOW(1)
0002cf 83a0      	STD  Z+0,R26
0002d0 c03b      	RJMP _0x39
                 ;case 9: {U2[0][n2]=1;U2[3][n2]=1;break;}
                 _0x41:
0002d1 30e9      	CPI  R30,LOW(0x9)
0002d2 e0a0      	LDI  R26,HIGH(0x9)
0002d3 07fa      	CPC  R31,R26
0002d4 f489      	BRNE _0x42
0002d5 91e0 02c7 	LDS  R30,_n2
0002d7 e0f0      	LDI  R31,0
0002d8 58ee      	SUBI R30,LOW(-_U2)
0002d9 4ffe      	SBCI R31,HIGH(-_U2)
0002da e0a1      	LDI  R26,LOW(1)
0002db 83a0      	STD  Z+0,R26
                +
0002dc e7ae     +LDI R26 , LOW ( _U2 + 12 )
0002dd e0b1     +LDI R27 , HIGH ( _U2 + 12 )
                 	__POINTW2MN _U2,12
0002de 91e0 02c7 	LDS  R30,_n2
0002e0 e0f0      	LDI  R31,0
0002e1 0fae      	ADD  R26,R30
0002e2 1fbf      	ADC  R27,R31
0002e3 e0e1      	LDI  R30,LOW(1)
0002e4 93ec      	ST   X,R30
0002e5 c026      	RJMP _0x39
                 ;case 10: {U2[0][n2]=1;U2[3][n2]=1;U2[6][n2]=1;U2[1][n2]=1;break;}
                 _0x42:
0002e6 30ea      	CPI  R30,LOW(0xA)
0002e7 e0a0      	LDI  R26,HIGH(0xA)
0002e8 07fa      	CPC  R31,R26
0002e9 f511      	BRNE _0x44
0002ea 91e0 02c7 	LDS  R30,_n2
0002ec e0f0      	LDI  R31,0
0002ed 58ee      	SUBI R30,LOW(-_U2)
0002ee 4ffe      	SBCI R31,HIGH(-_U2)
0002ef e0a1      	LDI  R26,LOW(1)
0002f0 83a0      	STD  Z+0,R26
                +
0002f1 e7ae     +LDI R26 , LOW ( _U2 + 12 )
0002f2 e0b1     +LDI R27 , HIGH ( _U2 + 12 )
                 	__POINTW2MN _U2,12
0002f3 91e0 02c7 	LDS  R30,_n2
0002f5 e0f0      	LDI  R31,0
0002f6 0fae      	ADD  R26,R30
0002f7 1fbf      	ADC  R27,R31
0002f8 e0e1      	LDI  R30,LOW(1)
0002f9 93ec      	ST   X,R30
                +
0002fa e8aa     +LDI R26 , LOW ( _U2 + 24 )
0002fb e0b1     +LDI R27 , HIGH ( _U2 + 24 )
                 	__POINTW2MN _U2,24
0002fc 91e0 02c7 	LDS  R30,_n2
0002fe e0f0      	LDI  R31,0
0002ff 0fae      	ADD  R26,R30
000300 1fbf      	ADC  R27,R31
000301 e0e1      	LDI  R30,LOW(1)
000302 93ec      	ST   X,R30
                +
000303 e7a6     +LDI R26 , LOW ( _U2 + 4 )
000304 e0b1     +LDI R27 , HIGH ( _U2 + 4 )
                 	__POINTW2MN _U2,4
000305 91e0 02c7 	LDS  R30,_n2
000307 e0f0      	LDI  R31,0
000308 0fae      	ADD  R26,R30
000309 1fbf      	ADC  R27,R31
00030a e0e1      	LDI  R30,LOW(1)
00030b 93ec      	ST   X,R30
                 ;default: ;
                 _0x44:
                 ;}
                 _0x39:
                 ;}
00030c 9508      	RET
                 ;void Dig_2(){
                 _Dig_2:
                 ;switch (Dig2){
00030d 91e0 02cf 	LDS  R30,_Dig2
00030f e0f0      	LDI  R31,0
                 ;case 1: {U2[4][n2]=1;break;}
000310 30e1      	CPI  R30,LOW(0x1)
000311 e0a0      	LDI  R26,HIGH(0x1)
000312 07fa      	CPC  R31,R26
000313 f451      	BRNE _0x48
                +
000314 e8a2     +LDI R26 , LOW ( _U2 + 16 )
000315 e0b1     +LDI R27 , HIGH ( _U2 + 16 )
                 	__POINTW2MN _U2,16
000316 91e0 02c7 	LDS  R30,_n2
000318 e0f0      	LDI  R31,0
000319 0fae      	ADD  R26,R30
00031a 1fbf      	ADC  R27,R31
00031b e0e1      	LDI  R30,LOW(1)
00031c 93ec      	ST   X,R30
00031d c0ce      	RJMP _0x47
                 ;case 2: {U2[2][n2]=1;break;}
                 _0x48:
00031e 30e2      	CPI  R30,LOW(0x2)
00031f e0a0      	LDI  R26,HIGH(0x2)
000320 07fa      	CPC  R31,R26
000321 f451      	BRNE _0x49
                +
000322 e7aa     +LDI R26 , LOW ( _U2 + 8 )
000323 e0b1     +LDI R27 , HIGH ( _U2 + 8 )
                 	__POINTW2MN _U2,8
000324 91e0 02c7 	LDS  R30,_n2
000326 e0f0      	LDI  R31,0
000327 0fae      	ADD  R26,R30
000328 1fbf      	ADC  R27,R31
000329 e0e1      	LDI  R30,LOW(1)
00032a 93ec      	ST   X,R30
00032b c0c0      	RJMP _0x47
                 ;case 3: {U2[4][n2]=1;U2[2][n2]=1;break;}
                 _0x49:
00032c 30e3      	CPI  R30,LOW(0x3)
00032d e0a0      	LDI  R26,HIGH(0x3)
00032e 07fa      	CPC  R31,R26
00032f f499      	BRNE _0x4A
                +
000330 e8a2     +LDI R26 , LOW ( _U2 + 16 )
000331 e0b1     +LDI R27 , HIGH ( _U2 + 16 )
                 	__POINTW2MN _U2,16
000332 91e0 02c7 	LDS  R30,_n2
000334 e0f0      	LDI  R31,0
000335 0fae      	ADD  R26,R30
000336 1fbf      	ADC  R27,R31
000337 e0e1      	LDI  R30,LOW(1)
000338 93ec      	ST   X,R30
                +
000339 e7aa     +LDI R26 , LOW ( _U2 + 8 )
00033a e0b1     +LDI R27 , HIGH ( _U2 + 8 )
                 	__POINTW2MN _U2,8
00033b 91e0 02c7 	LDS  R30,_n2
00033d e0f0      	LDI  R31,0
00033e 0fae      	ADD  R26,R30
00033f 1fbf      	ADC  R27,R31
000340 e0e1      	LDI  R30,LOW(1)
000341 93ec      	ST   X,R30
000342 c0a9      	RJMP _0x47
                 ;case 4: {U2[5][n2]=1;break;}
                 _0x4A:
000343 30e4      	CPI  R30,LOW(0x4)
000344 e0a0      	LDI  R26,HIGH(0x4)
000345 07fa      	CPC  R31,R26
000346 f451      	BRNE _0x4B
                +
000347 e8a6     +LDI R26 , LOW ( _U2 + 20 )
000348 e0b1     +LDI R27 , HIGH ( _U2 + 20 )
                 	__POINTW2MN _U2,20
000349 91e0 02c7 	LDS  R30,_n2
00034b e0f0      	LDI  R31,0
00034c 0fae      	ADD  R26,R30
00034d 1fbf      	ADC  R27,R31
00034e e0e1      	LDI  R30,LOW(1)
00034f 93ec      	ST   X,R30
000350 c09b      	RJMP _0x47
                 ;case 5: {U2[5][n2]=1;U2[4][n2]=1;break;}
                 _0x4B:
000351 30e5      	CPI  R30,LOW(0x5)
000352 e0a0      	LDI  R26,HIGH(0x5)
000353 07fa      	CPC  R31,R26
000354 f499      	BRNE _0x4C
                +
000355 e8a6     +LDI R26 , LOW ( _U2 + 20 )
000356 e0b1     +LDI R27 , HIGH ( _U2 + 20 )
                 	__POINTW2MN _U2,20
000357 91e0 02c7 	LDS  R30,_n2
000359 e0f0      	LDI  R31,0
00035a 0fae      	ADD  R26,R30
00035b 1fbf      	ADC  R27,R31
00035c e0e1      	LDI  R30,LOW(1)
00035d 93ec      	ST   X,R30
                +
00035e e8a2     +LDI R26 , LOW ( _U2 + 16 )
00035f e0b1     +LDI R27 , HIGH ( _U2 + 16 )
                 	__POINTW2MN _U2,16
000360 91e0 02c7 	LDS  R30,_n2
000362 e0f0      	LDI  R31,0
000363 0fae      	ADD  R26,R30
000364 1fbf      	ADC  R27,R31
000365 e0e1      	LDI  R30,LOW(1)
000366 93ec      	ST   X,R30
000367 c084      	RJMP _0x47
                 ;case 6: {U2[2][n2]=1;U2[5][n2]=1;break;}
                 _0x4C:
000368 30e6      	CPI  R30,LOW(0x6)
000369 e0a0      	LDI  R26,HIGH(0x6)
00036a 07fa      	CPC  R31,R26
00036b f499      	BRNE _0x4D
                +
00036c e7aa     +LDI R26 , LOW ( _U2 + 8 )
00036d e0b1     +LDI R27 , HIGH ( _U2 + 8 )
                 	__POINTW2MN _U2,8
00036e 91e0 02c7 	LDS  R30,_n2
000370 e0f0      	LDI  R31,0
000371 0fae      	ADD  R26,R30
000372 1fbf      	ADC  R27,R31
000373 e0e1      	LDI  R30,LOW(1)
000374 93ec      	ST   X,R30
                +
000375 e8a6     +LDI R26 , LOW ( _U2 + 20 )
000376 e0b1     +LDI R27 , HIGH ( _U2 + 20 )
                 	__POINTW2MN _U2,20
000377 91e0 02c7 	LDS  R30,_n2
000379 e0f0      	LDI  R31,0
00037a 0fae      	ADD  R26,R30
00037b 1fbf      	ADC  R27,R31
00037c e0e1      	LDI  R30,LOW(1)
00037d 93ec      	ST   X,R30
00037e c06d      	RJMP _0x47
                 ;case 7: {U2[2][n2]=1;U2[5][n2]=1;U2[4][n2]=1;break;}
                 _0x4D:
00037f 30e7      	CPI  R30,LOW(0x7)
000380 e0a0      	LDI  R26,HIGH(0x7)
000381 07fa      	CPC  R31,R26
000382 f4e1      	BRNE _0x4E
                +
000383 e7aa     +LDI R26 , LOW ( _U2 + 8 )
000384 e0b1     +LDI R27 , HIGH ( _U2 + 8 )
                 	__POINTW2MN _U2,8
000385 91e0 02c7 	LDS  R30,_n2
000387 e0f0      	LDI  R31,0
000388 0fae      	ADD  R26,R30
000389 1fbf      	ADC  R27,R31
00038a e0e1      	LDI  R30,LOW(1)
00038b 93ec      	ST   X,R30
                +
00038c e8a6     +LDI R26 , LOW ( _U2 + 20 )
00038d e0b1     +LDI R27 , HIGH ( _U2 + 20 )
                 	__POINTW2MN _U2,20
00038e 91e0 02c7 	LDS  R30,_n2
000390 e0f0      	LDI  R31,0
000391 0fae      	ADD  R26,R30
000392 1fbf      	ADC  R27,R31
000393 e0e1      	LDI  R30,LOW(1)
000394 93ec      	ST   X,R30
                +
000395 e8a2     +LDI R26 , LOW ( _U2 + 16 )
000396 e0b1     +LDI R27 , HIGH ( _U2 + 16 )
                 	__POINTW2MN _U2,16
000397 91e0 02c7 	LDS  R30,_n2
000399 e0f0      	LDI  R31,0
00039a 0fae      	ADD  R26,R30
00039b 1fbf      	ADC  R27,R31
00039c e0e1      	LDI  R30,LOW(1)
00039d 93ec      	ST   X,R30
00039e c04d      	RJMP _0x47
                 ;case 8: {U2[7][n2]=1;break;}
                 _0x4E:
00039f 30e8      	CPI  R30,LOW(0x8)
0003a0 e0a0      	LDI  R26,HIGH(0x8)
0003a1 07fa      	CPC  R31,R26
0003a2 f451      	BRNE _0x4F
                +
0003a3 e8ae     +LDI R26 , LOW ( _U2 + 28 )
0003a4 e0b1     +LDI R27 , HIGH ( _U2 + 28 )
                 	__POINTW2MN _U2,28
0003a5 91e0 02c7 	LDS  R30,_n2
0003a7 e0f0      	LDI  R31,0
0003a8 0fae      	ADD  R26,R30
0003a9 1fbf      	ADC  R27,R31
0003aa e0e1      	LDI  R30,LOW(1)
0003ab 93ec      	ST   X,R30
0003ac c03f      	RJMP _0x47
                 ;case 9: {U2[4][n2]=1;U2[7][n2]=1;break;}
                 _0x4F:
0003ad 30e9      	CPI  R30,LOW(0x9)
0003ae e0a0      	LDI  R26,HIGH(0x9)
0003af 07fa      	CPC  R31,R26
0003b0 f499      	BRNE _0x50
                +
0003b1 e8a2     +LDI R26 , LOW ( _U2 + 16 )
0003b2 e0b1     +LDI R27 , HIGH ( _U2 + 16 )
                 	__POINTW2MN _U2,16
0003b3 91e0 02c7 	LDS  R30,_n2
0003b5 e0f0      	LDI  R31,0
0003b6 0fae      	ADD  R26,R30
0003b7 1fbf      	ADC  R27,R31
0003b8 e0e1      	LDI  R30,LOW(1)
0003b9 93ec      	ST   X,R30
                +
0003ba e8ae     +LDI R26 , LOW ( _U2 + 28 )
0003bb e0b1     +LDI R27 , HIGH ( _U2 + 28 )
                 	__POINTW2MN _U2,28
0003bc 91e0 02c7 	LDS  R30,_n2
0003be e0f0      	LDI  R31,0
0003bf 0fae      	ADD  R26,R30
0003c0 1fbf      	ADC  R27,R31
0003c1 e0e1      	LDI  R30,LOW(1)
0003c2 93ec      	ST   X,R30
0003c3 c028      	RJMP _0x47
                 ;case 11: {U2[4][n2]=1;U2[7][n2]=1;{U2[5][n2]=1;U2[2][n2]=1;break;}}
                 _0x50:
0003c4 30eb      	CPI  R30,LOW(0xB)
0003c5 e0a0      	LDI  R26,HIGH(0xB)
0003c6 07fa      	CPC  R31,R26
0003c7 f521      	BRNE _0x52
                +
0003c8 e8a2     +LDI R26 , LOW ( _U2 + 16 )
0003c9 e0b1     +LDI R27 , HIGH ( _U2 + 16 )
                 	__POINTW2MN _U2,16
0003ca 91e0 02c7 	LDS  R30,_n2
0003cc e0f0      	LDI  R31,0
0003cd 0fae      	ADD  R26,R30
0003ce 1fbf      	ADC  R27,R31
0003cf e0e1      	LDI  R30,LOW(1)
0003d0 93ec      	ST   X,R30
                +
0003d1 e8ae     +LDI R26 , LOW ( _U2 + 28 )
0003d2 e0b1     +LDI R27 , HIGH ( _U2 + 28 )
                 	__POINTW2MN _U2,28
0003d3 91e0 02c7 	LDS  R30,_n2
0003d5 e0f0      	LDI  R31,0
0003d6 0fae      	ADD  R26,R30
0003d7 1fbf      	ADC  R27,R31
0003d8 e0e1      	LDI  R30,LOW(1)
0003d9 93ec      	ST   X,R30
                +
0003da e8a6     +LDI R26 , LOW ( _U2 + 20 )
0003db e0b1     +LDI R27 , HIGH ( _U2 + 20 )
                 	__POINTW2MN _U2,20
0003dc 91e0 02c7 	LDS  R30,_n2
0003de e0f0      	LDI  R31,0
0003df 0fae      	ADD  R26,R30
0003e0 1fbf      	ADC  R27,R31
0003e1 e0e1      	LDI  R30,LOW(1)
0003e2 93ec      	ST   X,R30
                +
0003e3 e7aa     +LDI R26 , LOW ( _U2 + 8 )
0003e4 e0b1     +LDI R27 , HIGH ( _U2 + 8 )
                 	__POINTW2MN _U2,8
0003e5 91e0 02c7 	LDS  R30,_n2
0003e7 e0f0      	LDI  R31,0
0003e8 0fae      	ADD  R26,R30
0003e9 1fbf      	ADC  R27,R31
0003ea e0e1      	LDI  R30,LOW(1)
0003eb 93ec      	ST   X,R30
                 ;default: ;
                 _0x52:
                 ;}
                 _0x47:
                 ;}
0003ec 9508      	RET
                 ;void Dig_0(){
                 _Dig_0:
                 ;//for (n2=0;n2<=3;n2++){
                 ;for (U3=0;U3<=7;U3++){U2[U3][0]=0;}
0003ed e0e0      	LDI  R30,LOW(0)
0003ee 93e0 01b2 	STS  _U3,R30
                 _0x54:
0003f0 91a0 01b2 	LDS  R26,_U3
0003f2 30a8      	CPI  R26,LOW(0x8)
0003f3 f480      	BRSH _0x55
0003f4 91e0 01b2 	LDS  R30,_U3
0003f6 e7a2      	LDI  R26,LOW(_U2)
0003f7 e0b1      	LDI  R27,HIGH(_U2)
0003f8 e0f0      	LDI  R31,0
0003f9 d5c8      	RCALL __LSLW2
0003fa 0fae      	ADD  R26,R30
0003fb 1fbf      	ADC  R27,R31
0003fc e0e0      	LDI  R30,LOW(0)
0003fd 93ec      	ST   X,R30
0003fe 91e0 01b2 	LDS  R30,_U3
000400 5fef      	SUBI R30,-LOW(1)
000401 93e0 01b2 	STS  _U3,R30
000403 cfec      	RJMP _0x54
                 _0x55:
                 ;for (U3=0;U3<=7;U3++){U2[U3][1]=0;}
000404 e0e0      	LDI  R30,LOW(0)
000405 93e0 01b2 	STS  _U3,R30
                 _0x57:
000407 91a0 01b2 	LDS  R26,_U3
000409 30a8      	CPI  R26,LOW(0x8)
00040a f488      	BRSH _0x58
00040b 91e0 01b2 	LDS  R30,_U3
00040d e7a2      	LDI  R26,LOW(_U2)
00040e e0b1      	LDI  R27,HIGH(_U2)
00040f e0f0      	LDI  R31,0
000410 d5b1      	RCALL __LSLW2
000411 0fea      	ADD  R30,R26
000412 1ffb      	ADC  R31,R27
000413 9631      	ADIW R30,1
000414 e0a0      	LDI  R26,LOW(0)
000415 83a0      	STD  Z+0,R26
000416 91e0 01b2 	LDS  R30,_U3
000418 5fef      	SUBI R30,-LOW(1)
000419 93e0 01b2 	STS  _U3,R30
00041b cfeb      	RJMP _0x57
                 _0x58:
                 ;for (U3=0;U3<=7;U3++){U2[U3][2]=0;}
00041c e0e0      	LDI  R30,LOW(0)
00041d 93e0 01b2 	STS  _U3,R30
                 _0x5A:
00041f 91a0 01b2 	LDS  R26,_U3
000421 30a8      	CPI  R26,LOW(0x8)
000422 f488      	BRSH _0x5B
000423 91e0 01b2 	LDS  R30,_U3
000425 e7a2      	LDI  R26,LOW(_U2)
000426 e0b1      	LDI  R27,HIGH(_U2)
000427 e0f0      	LDI  R31,0
000428 d599      	RCALL __LSLW2
000429 0fea      	ADD  R30,R26
00042a 1ffb      	ADC  R31,R27
00042b 9632      	ADIW R30,2
00042c e0a0      	LDI  R26,LOW(0)
00042d 83a0      	STD  Z+0,R26
00042e 91e0 01b2 	LDS  R30,_U3
000430 5fef      	SUBI R30,-LOW(1)
000431 93e0 01b2 	STS  _U3,R30
000433 cfeb      	RJMP _0x5A
                 _0x5B:
                 ;PORTB&=~0b11111111;
000434 b3e8      	IN   R30,0x18
000435 e0f0      	LDI  R31,0
000436 70e0      	ANDI R30,LOW(0xFF00)
000437 bbe8      	OUT  0x18,R30
                 ;//DDRD|=0b00000000;DDRD&=~0b11100000;
                 ;
                 ;}
000438 9508      	RET
                 ;
                 ;void U4M()
                 ;{
                 _U4M:
                 ;if (U4==0){DDRD|=0b10000000;DDRD&=~0b01100000;}
000439 91e0 01bf 	LDS  R30,_U4
00043b 30e0      	CPI  R30,0
00043c f441      	BRNE _0x5C
00043d b3e1      	IN   R30,0x11
00043e e0f0      	LDI  R31,0
00043f 68e0      	ORI  R30,0x80
000440 bbe1      	OUT  0x11,R30
000441 b3e1      	IN   R30,0x11
000442 e0f0      	LDI  R31,0
000443 79ef      	ANDI R30,LOW(0xFF9F)
000444 bbe1      	OUT  0x11,R30
                 ;if (U4==1){DDRD|=0b00100000;DDRD&=~0b11000000;}
                 _0x5C:
000445 91a0 01bf 	LDS  R26,_U4
000447 30a1      	CPI  R26,LOW(0x1)
000448 f441      	BRNE _0x5D
000449 b3e1      	IN   R30,0x11
00044a e0f0      	LDI  R31,0
00044b 62e0      	ORI  R30,0x20
00044c bbe1      	OUT  0x11,R30
00044d b3e1      	IN   R30,0x11
00044e e0f0      	LDI  R31,0
00044f 73ef      	ANDI R30,LOW(0xFF3F)
000450 bbe1      	OUT  0x11,R30
                 ;if (U4==2){DDRD|=0b01000000;DDRD&=~0b10100000;}
                 _0x5D:
000451 91a0 01bf 	LDS  R26,_U4
000453 30a2      	CPI  R26,LOW(0x2)
000454 f441      	BRNE _0x5E
000455 b3e1      	IN   R30,0x11
000456 e0f0      	LDI  R31,0
000457 64e0      	ORI  R30,0x40
000458 bbe1      	OUT  0x11,R30
000459 b3e1      	IN   R30,0x11
00045a e0f0      	LDI  R31,0
00045b 75ef      	ANDI R30,LOW(0xFF5F)
00045c bbe1      	OUT  0x11,R30
                 ;}
                 _0x5E:
00045d 9508      	RET
                 ;
                 ;
                 ;void null(){
                 _null:
                 ;dig_a=0,dig_b=0,dig_c=0,Timer_9=0;
00045e e0e0      	LDI  R30,LOW(0)
00045f 93e0 02d5 	STS  _dig_a,R30
000461 93e0 02d6 	STS  _dig_b,R30
000463 93e0 02d7 	STS  _dig_c,R30
000465 e0e0      	LDI  R30,LOW(0)
000466 e0f0      	LDI  R31,HIGH(0)
000467 93e0 01b5 	STS  _Timer_9,R30
000469 93f0 01b6 	STS  _Timer_9+1,R31
                 ;}
00046b 9508      	RET
                 ;
                 ;void Parts(){
                 _Parts:
                 ;Num2[n2]=0;
00046c 91e0 02c7 	LDS  R30,_n2
00046e e0f0      	LDI  R31,0
00046f 53e0      	SUBI R30,LOW(-_Num2)
000470 4ffd      	SBCI R31,HIGH(-_Num2)
000471 e0a0      	LDI  R26,LOW(0)
000472 83a0      	STD  Z+0,R26
                 ;if(Number[n2]<0){Number[n2]*=-1;}
000473 91e0 02c7 	LDS  R30,_n2
000475 eba7      	LDI  R26,LOW(_Number)
000476 e0b1      	LDI  R27,HIGH(_Number)
000477 e0f0      	LDI  R31,0
000478 0fee      	LSL  R30
000479 1fff      	ROL  R31
00047a 0fae      	ADD  R26,R30
00047b 1fbf      	ADC  R27,R31
00047c d585      	RCALL __GETW1P
00047d 23ff      	TST  R31
00047e f492      	BRPL _0x5F
00047f 91e0 02c7 	LDS  R30,_n2
000481 eba7      	LDI  R26,LOW(_Number)
000482 e0b1      	LDI  R27,HIGH(_Number)
000483 e0f0      	LDI  R31,0
000484 0fee      	LSL  R30
000485 1fff      	ROL  R31
000486 0fea      	ADD  R30,R26
000487 1ffb      	ADC  R31,R27
000488 01bf      	MOVW R22,R30
000489 01df      	MOVW R26,R30
00048a d577      	RCALL __GETW1P
00048b efaf      	LDI  R26,LOW(65535)
00048c efbf      	LDI  R27,HIGH(65535)
00048d d561      	RCALL __MULW12
00048e 01db      	MOVW R26,R22
00048f 93ed      	ST   X+,R30
000490 93fc      	ST   X,R31
                 ;while (Number[n2] >= 10){Number[n2] -= 10;Num2[n2]++;}
                 _0x5F:
                 _0x60:
000491 91e0 02c7 	LDS  R30,_n2
000493 eba7      	LDI  R26,LOW(_Number)
000494 e0b1      	LDI  R27,HIGH(_Number)
000495 e0f0      	LDI  R31,0
000496 0fee      	LSL  R30
000497 1fff      	ROL  R31
000498 0fae      	ADD  R26,R30
000499 1fbf      	ADC  R27,R31
00049a d567      	RCALL __GETW1P
00049b 973a      	SBIW R30,10
00049c f0bc      	BRLT _0x62
00049d 91e0 02c7 	LDS  R30,_n2
00049f eba7      	LDI  R26,LOW(_Number)
0004a0 e0b1      	LDI  R27,HIGH(_Number)
0004a1 e0f0      	LDI  R31,0
0004a2 0fee      	LSL  R30
0004a3 1fff      	ROL  R31
0004a4 0fae      	ADD  R26,R30
0004a5 1fbf      	ADC  R27,R31
0004a6 91ed      	LD   R30,X+
0004a7 91fd      	LD   R31,X+
0004a8 973a      	SBIW R30,10
0004a9 93fe      	ST   -X,R31
0004aa 93ee      	ST   -X,R30
0004ab 91a0 02c7 	LDS  R26,_n2
0004ad e0b0      	LDI  R27,0
0004ae 53a0      	SUBI R26,LOW(-_Num2)
0004af 4fbd      	SBCI R27,HIGH(-_Num2)
0004b0 91ec      	LD   R30,X
0004b1 5fef      	SUBI R30,-LOW(1)
0004b2 93ec      	ST   X,R30
0004b3 cfdd      	RJMP _0x60
                 _0x62:
                 ;  Dig1 = Number[n2];
0004b4 c084      	RJMP _0x2080002
                 ;  Dig2 = Num2[n2];
                 ;}
                 ;void Parts1(){
                 _Parts1:
                 ;Num2[n2]=0;
0004b5 91e0 02c7 	LDS  R30,_n2
0004b7 e0f0      	LDI  R31,0
0004b8 53e0      	SUBI R30,LOW(-_Num2)
0004b9 4ffd      	SBCI R31,HIGH(-_Num2)
0004ba e0a0      	LDI  R26,LOW(0)
0004bb 83a0      	STD  Z+0,R26
                 ;while (Number[n2] >= 10000){Number[n2] -= 10000;}
                 _0x63:
0004bc 91e0 02c7 	LDS  R30,_n2
0004be eba7      	LDI  R26,LOW(_Number)
0004bf e0b1      	LDI  R27,HIGH(_Number)
0004c0 e0f0      	LDI  R31,0
0004c1 0fee      	LSL  R30
0004c2 1fff      	ROL  R31
0004c3 0fae      	ADD  R26,R30
0004c4 1fbf      	ADC  R27,R31
0004c5 d53c      	RCALL __GETW1P
0004c6 31e0      	CPI  R30,LOW(0x2710)
0004c7 e2a7      	LDI  R26,HIGH(0x2710)
0004c8 07fa      	CPC  R31,R26
0004c9 f084      	BRLT _0x65
0004ca 91e0 02c7 	LDS  R30,_n2
0004cc eba7      	LDI  R26,LOW(_Number)
0004cd e0b1      	LDI  R27,HIGH(_Number)
0004ce e0f0      	LDI  R31,0
0004cf 0fee      	LSL  R30
0004d0 1fff      	ROL  R31
0004d1 0fae      	ADD  R26,R30
0004d2 1fbf      	ADC  R27,R31
0004d3 91ed      	LD   R30,X+
0004d4 91fd      	LD   R31,X+
0004d5 51e0      	SUBI R30,LOW(10000)
0004d6 42f7      	SBCI R31,HIGH(10000)
0004d7 93fe      	ST   -X,R31
0004d8 93ee      	ST   -X,R30
0004d9 cfe2      	RJMP _0x63
                 _0x65:
                 ;while (Number[n2] >= 1000){Number[n2] -= 1000;}
                 _0x66:
0004da 91e0 02c7 	LDS  R30,_n2
0004dc eba7      	LDI  R26,LOW(_Number)
0004dd e0b1      	LDI  R27,HIGH(_Number)
0004de e0f0      	LDI  R31,0
0004df 0fee      	LSL  R30
0004e0 1fff      	ROL  R31
0004e1 0fae      	ADD  R26,R30
0004e2 1fbf      	ADC  R27,R31
0004e3 d51e      	RCALL __GETW1P
0004e4 3ee8      	CPI  R30,LOW(0x3E8)
0004e5 e0a3      	LDI  R26,HIGH(0x3E8)
0004e6 07fa      	CPC  R31,R26
0004e7 f084      	BRLT _0x68
0004e8 91e0 02c7 	LDS  R30,_n2
0004ea eba7      	LDI  R26,LOW(_Number)
0004eb e0b1      	LDI  R27,HIGH(_Number)
0004ec e0f0      	LDI  R31,0
0004ed 0fee      	LSL  R30
0004ee 1fff      	ROL  R31
0004ef 0fae      	ADD  R26,R30
0004f0 1fbf      	ADC  R27,R31
0004f1 91ed      	LD   R30,X+
0004f2 91fd      	LD   R31,X+
0004f3 5ee8      	SUBI R30,LOW(1000)
0004f4 40f3      	SBCI R31,HIGH(1000)
0004f5 93fe      	ST   -X,R31
0004f6 93ee      	ST   -X,R30
0004f7 cfe2      	RJMP _0x66
                 _0x68:
                 ;while (Number[n2] >= 100){Number[n2] -= 100;}
                 _0x69:
0004f8 91e0 02c7 	LDS  R30,_n2
0004fa eba7      	LDI  R26,LOW(_Number)
0004fb e0b1      	LDI  R27,HIGH(_Number)
0004fc e0f0      	LDI  R31,0
0004fd 0fee      	LSL  R30
0004fe 1fff      	ROL  R31
0004ff 0fae      	ADD  R26,R30
000500 1fbf      	ADC  R27,R31
000501 d500      	RCALL __GETW1P
000502 36e4      	CPI  R30,LOW(0x64)
000503 e0a0      	LDI  R26,HIGH(0x64)
000504 07fa      	CPC  R31,R26
000505 f084      	BRLT _0x6B
000506 91e0 02c7 	LDS  R30,_n2
000508 eba7      	LDI  R26,LOW(_Number)
000509 e0b1      	LDI  R27,HIGH(_Number)
00050a e0f0      	LDI  R31,0
00050b 0fee      	LSL  R30
00050c 1fff      	ROL  R31
00050d 0fae      	ADD  R26,R30
00050e 1fbf      	ADC  R27,R31
00050f 91ed      	LD   R30,X+
000510 91fd      	LD   R31,X+
000511 56e4      	SUBI R30,LOW(100)
000512 40f0      	SBCI R31,HIGH(100)
000513 93fe      	ST   -X,R31
000514 93ee      	ST   -X,R30
000515 cfe2      	RJMP _0x69
                 _0x6B:
                 ;while (Number[n2] >= 10){Number[n2] -= 10;Num2[n2]++;}
                 _0x6C:
000516 91e0 02c7 	LDS  R30,_n2
000518 eba7      	LDI  R26,LOW(_Number)
000519 e0b1      	LDI  R27,HIGH(_Number)
00051a e0f0      	LDI  R31,0
00051b 0fee      	LSL  R30
00051c 1fff      	ROL  R31
00051d 0fae      	ADD  R26,R30
00051e 1fbf      	ADC  R27,R31
00051f d4e2      	RCALL __GETW1P
000520 973a      	SBIW R30,10
000521 f0bc      	BRLT _0x6E
000522 91e0 02c7 	LDS  R30,_n2
000524 eba7      	LDI  R26,LOW(_Number)
000525 e0b1      	LDI  R27,HIGH(_Number)
000526 e0f0      	LDI  R31,0
000527 0fee      	LSL  R30
000528 1fff      	ROL  R31
000529 0fae      	ADD  R26,R30
00052a 1fbf      	ADC  R27,R31
00052b 91ed      	LD   R30,X+
00052c 91fd      	LD   R31,X+
00052d 973a      	SBIW R30,10
00052e 93fe      	ST   -X,R31
00052f 93ee      	ST   -X,R30
000530 91a0 02c7 	LDS  R26,_n2
000532 e0b0      	LDI  R27,0
000533 53a0      	SUBI R26,LOW(-_Num2)
000534 4fbd      	SBCI R27,HIGH(-_Num2)
000535 91ec      	LD   R30,X
000536 5fef      	SUBI R30,-LOW(1)
000537 93ec      	ST   X,R30
000538 cfdd      	RJMP _0x6C
                 _0x6E:
                 ;  Dig1 = Number[n2];
                 _0x2080002:
000539 91e0 02c7 	LDS  R30,_n2
00053b eba7      	LDI  R26,LOW(_Number)
00053c e0b1      	LDI  R27,HIGH(_Number)
00053d e0f0      	LDI  R31,0
00053e 0fee      	LSL  R30
00053f 1fff      	ROL  R31
000540 0fae      	ADD  R26,R30
000541 1fbf      	ADC  R27,R31
000542 91ec      	LD   R30,X
000543 93e0 02ce 	STS  _Dig1,R30
                 ;  Dig2 = Num2[n2];
000545 91e0 02c7 	LDS  R30,_n2
000547 e0f0      	LDI  R31,0
000548 53e0      	SUBI R30,LOW(-_Num2)
000549 4ffd      	SBCI R31,HIGH(-_Num2)
00054a 81e0      	LD   R30,Z
00054b 93e0 02cf 	STS  _Dig2,R30
                 ;}
00054d 9508      	RET
                 ;
                 ;void Dig(){
                 _Dig:
                 ;if (PWM_Susp==0){
00054e 91e0 02c9 	LDS  R30,_PWM_Susp
000550 30e0      	CPI  R30,0
000551 f009      	BREQ PC+2
000552 c1fd      	RJMP _0x6F
                 ;PWM1();
000553 db18      	RCALL _PWM1
                 ;Timer_4++;
000554 91e0 01c4 	LDS  R30,_Timer_4
000556 5fef      	SUBI R30,-LOW(1)
000557 93e0 01c4 	STS  _Timer_4,R30
                 ;if (Timer_4==20){U4++;Timer_4=0;
000559 91a0 01c4 	LDS  R26,_Timer_4
00055b 31a4      	CPI  R26,LOW(0x14)
00055c f009      	BREQ PC+2
00055d c1f2      	RJMP _0x70
00055e 91e0 01bf 	LDS  R30,_U4
000560 5fef      	SUBI R30,-LOW(1)
000561 93e0 01bf 	STS  _U4,R30
000563 e0e0      	LDI  R30,LOW(0)
000564 93e0 01c4 	STS  _Timer_4,R30
                 ;//U4++;
                 ;if (U4==3){U4=0;}
000566 91a0 01bf 	LDS  R26,_U4
000568 30a3      	CPI  R26,LOW(0x3)
000569 f411      	BRNE _0x71
00056a 93e0 01bf 	STS  _U4,R30
                 ;
                 ;
                 ;Dig_0();
                 _0x71:
00056c de80      	RCALL _Dig_0
                 ;n2=U4;
00056d 91e0 01bf 	LDS  R30,_U4
00056f 93e0 02c7 	STS  _n2,R30
                 ;
                 ;U4M();
000571 dec7      	RCALL _U4M
                 ;if (U8==0){ //Time
000572 91e0 02cb 	LDS  R30,_U8
000574 30e0      	CPI  R30,0
000575 f499      	BRNE _0x72
                 ;Number[0] = hour;
000576 2de7      	MOV  R30,R7
000577 e0f0      	LDI  R31,0
000578 93e0 01b7 	STS  _Number,R30
00057a 93f0 01b8 	STS  _Number+1,R31
                 ;Number[1] = mins;
                +
00057c eba9     +LDI R26 , LOW ( _Number + 2 )
00057d e0b1     +LDI R27 , HIGH ( _Number + 2 )
                 	__POINTW2MN _Number,2
00057e 2de4      	MOV  R30,R4
00057f e0f0      	LDI  R31,0
000580 93ed      	ST   X+,R30
000581 93fc      	ST   X,R31
                 ;Number[2] = sec;
                +
000582 ebab     +LDI R26 , LOW ( _Number + 4 )
000583 e0b1     +LDI R27 , HIGH ( _Number + 4 )
                 	__POINTW2MN _Number,4
000584 2de5      	MOV  R30,R5
000585 e0f0      	LDI  R31,0
000586 93ed      	ST   X+,R30
000587 93fc      	ST   X,R31
                 ;Parts();
000588 dee3      	RCALL _Parts
                 ;}
                 ;if (U8==1){ //sp
                 _0x72:
000589 91a0 02cb 	LDS  R26,_U8
00058b 30a1      	CPI  R26,LOW(0x1)
00058c f009      	BREQ PC+2
00058d c07e      	RJMP _0x73
                 ;Timer_9++;if (Timer_9==1){dig_a=0,dig_b=0,dig_c=0;}if (Timer_9==300){dig_a=7,dig_b=17,dig_c=47;};if (Timer_9==600){dig_a=0,dig_b=0,dig_c=0;};if (Timer_9==1200){dig_a=7,dig_b=57,dig_c=11;}if (Timer_9==2200){dig_a=0,dig_b=0,dig_c=0;}if (Timer_9==2400){Time00058e eba5      r_9=0;U8=4;U9=10;}
00058f e0b1      	LDI  R26,LOW(_Timer_9)
000590 91ed      	LDI  R27,HIGH(_Timer_9)
000591 91fd      	LD   R30,X+
000592 9631      	LD   R31,X+
000593 93fe      	ADIW R30,1
000594 93ee      	ST   -X,R31
000595 91a0 01b5 	ST   -X,R30
000597 91b0 01b6 	LDS  R26,_Timer_9
000599 9711      	LDS  R27,_Timer_9+1
00059a f439      	SBIW R26,1
00059b e0e0      	BRNE _0x74
00059c 93e0 02d5 	LDI  R30,LOW(0)
00059e 93e0 02d6 	STS  _dig_a,R30
0005a0 93e0 02d7 	STS  _dig_b,R30
                 	STS  _dig_c,R30
0005a2 91a0 01b5 _0x74:
0005a4 91b0 01b6 	LDS  R26,_Timer_9
0005a6 32ac      	LDS  R27,_Timer_9+1
0005a7 e0e1      	CPI  R26,LOW(0x12C)
0005a8 07be      	LDI  R30,HIGH(0x12C)
0005a9 f449      	CPC  R27,R30
0005aa e0e7      	BRNE _0x75
0005ab 93e0 02d5 	LDI  R30,LOW(7)
0005ad e1e1      	STS  _dig_a,R30
0005ae 93e0 02d6 	LDI  R30,LOW(17)
0005b0 e2ef      	STS  _dig_b,R30
0005b1 93e0 02d7 	LDI  R30,LOW(47)
                 	STS  _dig_c,R30
0005b3 91a0 01b5 _0x75:
0005b5 91b0 01b6 	LDS  R26,_Timer_9
0005b7 35a8      	LDS  R27,_Timer_9+1
0005b8 e0e2      	CPI  R26,LOW(0x258)
0005b9 07be      	LDI  R30,HIGH(0x258)
0005ba f439      	CPC  R27,R30
0005bb e0e0      	BRNE _0x76
0005bc 93e0 02d5 	LDI  R30,LOW(0)
0005be 93e0 02d6 	STS  _dig_a,R30
0005c0 93e0 02d7 	STS  _dig_b,R30
                 	STS  _dig_c,R30
0005c2 91a0 01b5 _0x76:
0005c4 91b0 01b6 	LDS  R26,_Timer_9
0005c6 3ba0      	LDS  R27,_Timer_9+1
0005c7 e0e4      	CPI  R26,LOW(0x4B0)
0005c8 07be      	LDI  R30,HIGH(0x4B0)
0005c9 f449      	CPC  R27,R30
0005ca e0e7      	BRNE _0x77
0005cb 93e0 02d5 	LDI  R30,LOW(7)
0005cd e3e9      	STS  _dig_a,R30
0005ce 93e0 02d6 	LDI  R30,LOW(57)
0005d0 e0eb      	STS  _dig_b,R30
0005d1 93e0 02d7 	LDI  R30,LOW(11)
                 	STS  _dig_c,R30
0005d3 91a0 01b5 _0x77:
0005d5 91b0 01b6 	LDS  R26,_Timer_9
0005d7 39a8      	LDS  R27,_Timer_9+1
0005d8 e0e8      	CPI  R26,LOW(0x898)
0005d9 07be      	LDI  R30,HIGH(0x898)
0005da f439      	CPC  R27,R30
0005db e0e0      	BRNE _0x78
0005dc 93e0 02d5 	LDI  R30,LOW(0)
0005de 93e0 02d6 	STS  _dig_a,R30
0005e0 93e0 02d7 	STS  _dig_b,R30
                 	STS  _dig_c,R30
0005e2 91a0 01b5 _0x78:
0005e4 91b0 01b6 	LDS  R26,_Timer_9
0005e6 36a0      	LDS  R27,_Timer_9+1
0005e7 e0e9      	CPI  R26,LOW(0x960)
0005e8 07be      	LDI  R30,HIGH(0x960)
0005e9 f461      	CPC  R27,R30
0005ea e0e0      	BRNE _0x79
0005eb e0f0      	LDI  R30,LOW(0)
0005ec 93e0 01b5 	LDI  R31,HIGH(0)
0005ee 93f0 01b6 	STS  _Timer_9,R30
0005f0 e0e4      	STS  _Timer_9+1,R31
0005f1 93e0 02cb 	LDI  R30,LOW(4)
0005f3 e0ea      	STS  _U8,R30
0005f4 93e0 02cc 	LDI  R30,LOW(10)
                 	STS  _U9,R30
                 ;
                 ;Number[0] = dig_a;
0005f6 91e0 02d5 _0x79:
0005f8 e0f0      	LDS  R30,_dig_a
0005f9 93e0 01b7 	LDI  R31,0
0005fb 93f0 01b8 	STS  _Number,R30
                 	STS  _Number+1,R31
                +
0005fd eba9     +LDI R26 , LOW ( _Number + 2 )
0005fe e0b1     +LDI R27 , HIGH ( _Number + 2 )
                 	__POINTW2MN _Number,2
0005ff 91e0 02d6 	LDS  R30,_dig_b
000601 e0f0      	LDI  R31,0
000602 93ed      	ST   X+,R30
000603 93fc      	ST   X,R31
                 ;Number[2] = dig_c;
                +
000604 ebab     +LDI R26 , LOW ( _Number + 4 )
000605 e0b1     +LDI R27 , HIGH ( _Number + 4 )
                 	__POINTW2MN _Number,4
000606 91e0 02d7 	LDS  R30,_dig_c
000608 e0f0      	LDI  R31,0
000609 93ed      	ST   X+,R30
00060a 93fc      	ST   X,R31
                 ;Parts();
00060b de60      	RCALL _Parts
                 ;}
                 ;if (U8==2){//off
                 _0x73:
00060c 91a0 02cb 	LDS  R26,_U8
00060e 30a2      	CPI  R26,LOW(0x2)
00060f f4b1      	BRNE _0x7A
                 ;Number[n2]=Num2[n2]=0;
000610 91e0 02c7 	LDS  R30,_n2
000612 eba7      	LDI  R26,LOW(_Number)
000613 e0b1      	LDI  R27,HIGH(_Number)
000614 e0f0      	LDI  R31,0
000615 0fee      	LSL  R30
000616 1fff      	ROL  R31
000617 0fea      	ADD  R30,R26
000618 1ffb      	ADC  R31,R27
000619 010f      	MOVW R0,R30
00061a 91a0 02c7 	LDS  R26,_n2
00061c e0b0      	LDI  R27,0
00061d 53a0      	SUBI R26,LOW(-_Num2)
00061e 4fbd      	SBCI R27,HIGH(-_Num2)
00061f e0e0      	LDI  R30,LOW(0)
000620 93ec      	ST   X,R30
000621 01d0      	MOVW R26,R0
000622 e0f0      	LDI  R31,0
000623 93ed      	ST   X+,R30
000624 93fc      	ST   X,R31
                 ;Parts();
000625 de46      	RCALL _Parts
                 ;}
                 ;if (U8==3){ //Temp
                 _0x7A:
000626 91a0 02cb 	LDS  R26,_U8
000628 30a3      	CPI  R26,LOW(0x3)
000629 f009      	BREQ PC+2
00062a c040      	RJMP _0x7B
                 ;Timer_9++;if (Timer_9==300){dig_a=0,dig_b=0;}if (Timer_9==600){Timer_9=0;U10=0,dig_a=7,dig_b=50;}//если температура включена
00062b eba5      	LDI  R26,LOW(_Timer_9)
00062c e0b1      	LDI  R27,HIGH(_Timer_9)
00062d 91ed      	LD   R30,X+
00062e 91fd      	LD   R31,X+
00062f 9631      	ADIW R30,1
000630 93fe      	ST   -X,R31
000631 93ee      	ST   -X,R30
000632 91a0 01b5 	LDS  R26,_Timer_9
000634 91b0 01b6 	LDS  R27,_Timer_9+1
000636 32ac      	CPI  R26,LOW(0x12C)
000637 e0e1      	LDI  R30,HIGH(0x12C)
000638 07be      	CPC  R27,R30
000639 f429      	BRNE _0x7C
00063a e0e0      	LDI  R30,LOW(0)
00063b 93e0 02d5 	STS  _dig_a,R30
00063d 93e0 02d6 	STS  _dig_b,R30
                 _0x7C:
00063f 91a0 01b5 	LDS  R26,_Timer_9
000641 91b0 01b6 	LDS  R27,_Timer_9+1
000643 35a8      	CPI  R26,LOW(0x258)
000644 e0e2      	LDI  R30,HIGH(0x258)
000645 07be      	CPC  R27,R30
000646 f471      	BRNE _0x7D
000647 e0e0      	LDI  R30,LOW(0)
000648 e0f0      	LDI  R31,HIGH(0)
000649 93e0 01b5 	STS  _Timer_9,R30
00064b 93f0 01b6 	STS  _Timer_9+1,R31
00064d 94e8      	CLT
00064e f820      	BLD  R2,0
00064f e0e7      	LDI  R30,LOW(7)
000650 93e0 02d5 	STS  _dig_a,R30
000652 e3e2      	LDI  R30,LOW(50)
000653 93e0 02d6 	STS  _dig_b,R30
                 ;//Num2[n2]=0;
                 ;Number[0] = dig_a;
                 _0x7D:
000655 91e0 02d5 	LDS  R30,_dig_a
000657 e0f0      	LDI  R31,0
000658 93e0 01b7 	STS  _Number,R30
00065a 93f0 01b8 	STS  _Number+1,R31
                 ;Number[1] = dig_b;
                +
00065c eba9     +LDI R26 , LOW ( _Number + 2 )
00065d e0b1     +LDI R27 , HIGH ( _Number + 2 )
                 	__POINTW2MN _Number,2
00065e 91e0 02d6 	LDS  R30,_dig_b
000660 e0f0      	LDI  R31,0
000661 93ed      	ST   X+,R30
000662 93fc      	ST   X,R31
                 ;Number[2] = adc1;
                +
000663 ebab     +LDI R26 , LOW ( _Number + 4 )
000664 e0b1     +LDI R27 , HIGH ( _Number + 4 )
                 	__POINTW2MN _Number,4
000665 91e0 02d8 	LDS  R30,_adc1
000667 e0f0      	LDI  R31,0
000668 93ed      	ST   X+,R30
000669 93fc      	ST   X,R31
                 ;Parts();
00066a de01      	RCALL _Parts
                 ;}
                 ;if (U8==4){
                 _0x7B:
00066b 91a0 02cb 	LDS  R26,_U8
00066d 30a4      	CPI  R26,LOW(0x4)
00066e f009      	BREQ PC+2
00066f c03a      	RJMP _0x7E
                 ;//U9=15;
                 ;Timer_9++;if (Timer_9==1){dig_a=rand();dig_b=rand();dig_c=rand();}if (Timer_9==300){Timer_9=0;}//
000670 eba5      	LDI  R26,LOW(_Timer_9)
000671 e0b1      	LDI  R27,HIGH(_Timer_9)
000672 91ed      	LD   R30,X+
000673 91fd      	LD   R31,X+
000674 9631      	ADIW R30,1
000675 93fe      	ST   -X,R31
000676 93ee      	ST   -X,R30
000677 91a0 01b5 	LDS  R26,_Timer_9
000679 91b0 01b6 	LDS  R27,_Timer_9+1
00067b 9711      	SBIW R26,1
00067c f449      	BRNE _0x7F
00067d d324      	RCALL _rand
00067e 93e0 02d5 	STS  _dig_a,R30
000680 d321      	RCALL _rand
000681 93e0 02d6 	STS  _dig_b,R30
000683 d31e      	RCALL _rand
000684 93e0 02d7 	STS  _dig_c,R30
                 _0x7F:
000686 91a0 01b5 	LDS  R26,_Timer_9
000688 91b0 01b6 	LDS  R27,_Timer_9+1
00068a 32ac      	CPI  R26,LOW(0x12C)
00068b e0e1      	LDI  R30,HIGH(0x12C)
00068c 07be      	CPC  R27,R30
00068d f431      	BRNE _0x80
00068e e0e0      	LDI  R30,LOW(0)
00068f e0f0      	LDI  R31,HIGH(0)
000690 93e0 01b5 	STS  _Timer_9,R30
000692 93f0 01b6 	STS  _Timer_9+1,R31
                 ;Number[0] = dig_a;
                 _0x80:
000694 91e0 02d5 	LDS  R30,_dig_a
000696 e0f0      	LDI  R31,0
000697 93e0 01b7 	STS  _Number,R30
000699 93f0 01b8 	STS  _Number+1,R31
                 ;Number[1] = dig_b;
                +
00069b eba9     +LDI R26 , LOW ( _Number + 2 )
00069c e0b1     +LDI R27 , HIGH ( _Number + 2 )
                 	__POINTW2MN _Number,2
00069d 91e0 02d6 	LDS  R30,_dig_b
00069f e0f0      	LDI  R31,0
0006a0 93ed      	ST   X+,R30
0006a1 93fc      	ST   X,R31
                 ;Number[2] = dig_c;
                +
0006a2 ebab     +LDI R26 , LOW ( _Number + 4 )
0006a3 e0b1     +LDI R27 , HIGH ( _Number + 4 )
                 	__POINTW2MN _Number,4
0006a4 91e0 02d7 	LDS  R30,_dig_c
0006a6 e0f0      	LDI  R31,0
0006a7 93ed      	ST   X+,R30
0006a8 93fc      	ST   X,R31
                 ;Parts1();
0006a9 de0b      	RCALL _Parts1
                 ;;}
                 ;if (U8==5){
                 _0x7E:
0006aa 91a0 02cb 	LDS  R26,_U8
0006ac 30a5      	CPI  R26,LOW(0x5)
0006ad f009      	BREQ PC+2
0006ae c04b      	RJMP _0x81
                 ;//U9=15;
                 ;Timer_9++;if (Timer_9==100){dig_a=07;dig_b=57;dig_c=57;}if (Timer_9==400){if (PIND.3==1){dig_b=77;}if (PIND.2==1){dig_c=77;}Timer_9=0;}//
0006af eba5      	LDI  R26,LOW(_Timer_9)
0006b0 e0b1      	LDI  R27,HIGH(_Timer_9)
0006b1 91ed      	LD   R30,X+
0006b2 91fd      	LD   R31,X+
0006b3 9631      	ADIW R30,1
0006b4 93fe      	ST   -X,R31
0006b5 93ee      	ST   -X,R30
0006b6 91a0 01b5 	LDS  R26,_Timer_9
0006b8 91b0 01b6 	LDS  R27,_Timer_9+1
0006ba 36a4      	CPI  R26,LOW(0x64)
0006bb e0e0      	LDI  R30,HIGH(0x64)
0006bc 07be      	CPC  R27,R30
0006bd f441      	BRNE _0x82
0006be e0e7      	LDI  R30,LOW(7)
0006bf 93e0 02d5 	STS  _dig_a,R30
0006c1 e3e9      	LDI  R30,LOW(57)
0006c2 93e0 02d6 	STS  _dig_b,R30
0006c4 93e0 02d7 	STS  _dig_c,R30
                 _0x82:
0006c6 91a0 01b5 	LDS  R26,_Timer_9
0006c8 91b0 01b6 	LDS  R27,_Timer_9+1
0006ca 39a0      	CPI  R26,LOW(0x190)
0006cb e0e1      	LDI  R30,HIGH(0x190)
0006cc 07be      	CPC  R27,R30
0006cd f4b1      	BRNE _0x83
0006ce e0a0      	LDI  R26,0
0006cf 9983      	SBIC 0x10,3
0006d0 e0a1      	LDI  R26,1
0006d1 30a1      	CPI  R26,LOW(0x1)
0006d2 f419      	BRNE _0x84
0006d3 e4ed      	LDI  R30,LOW(77)
0006d4 93e0 02d6 	STS  _dig_b,R30
                 _0x84:
0006d6 e0a0      	LDI  R26,0
0006d7 9982      	SBIC 0x10,2
0006d8 e0a1      	LDI  R26,1
0006d9 30a1      	CPI  R26,LOW(0x1)
0006da f419      	BRNE _0x85
0006db e4ed      	LDI  R30,LOW(77)
0006dc 93e0 02d7 	STS  _dig_c,R30
                 _0x85:
0006de e0e0      	LDI  R30,LOW(0)
0006df e0f0      	LDI  R31,HIGH(0)
0006e0 93e0 01b5 	STS  _Timer_9,R30
0006e2 93f0 01b6 	STS  _Timer_9+1,R31
                 ;Number[0] = dig_a;
                 _0x83:
0006e4 91e0 02d5 	LDS  R30,_dig_a
0006e6 e0f0      	LDI  R31,0
0006e7 93e0 01b7 	STS  _Number,R30
0006e9 93f0 01b8 	STS  _Number+1,R31
                 ;Number[1] = dig_b;
                +
0006eb eba9     +LDI R26 , LOW ( _Number + 2 )
0006ec e0b1     +LDI R27 , HIGH ( _Number + 2 )
                 	__POINTW2MN _Number,2
0006ed 91e0 02d6 	LDS  R30,_dig_b
0006ef e0f0      	LDI  R31,0
0006f0 93ed      	ST   X+,R30
0006f1 93fc      	ST   X,R31
                 ;Number[2] = dig_c;
                +
0006f2 ebab     +LDI R26 , LOW ( _Number + 4 )
0006f3 e0b1     +LDI R27 , HIGH ( _Number + 4 )
                 	__POINTW2MN _Number,4
0006f4 91e0 02d7 	LDS  R30,_dig_c
0006f6 e0f0      	LDI  R31,0
0006f7 93ed      	ST   X+,R30
0006f8 93fc      	ST   X,R31
                 ;Parts();
0006f9 dd72      	RCALL _Parts
                 ;;}
                 ;if (U8==6){
                 _0x81:
0006fa 91a0 02cb 	LDS  R26,_U8
0006fc 30a6      	CPI  R26,LOW(0x6)
0006fd f009      	BREQ PC+2
0006fe c04f      	RJMP _0x86
                 ;//U9=15;
                 ;//Timer_9++;if (Timer_9==1){dig_a=hour_a1;dig_b=mins_a1;dig_c=sec_a1;}if (Timer_9==100){dig_a=hour_a2;dig_b=mins_a2;dig_c=sec_a2;Timer_9=0;}if (Timer_9==200){dig_a=0;dig_b=0;dig_c=80;Timer_9=0;}//
                 ;Timer_9++;if (Timer_9==100){dig_a=hour_a1;dig_b=mins_a1;dig_c=sec_a1;}if (Timer_9==200){dig_a=hour_a2;dig_b=mins_a2;dig_c=sec_a2;}if (Timer_9==300){dig_a=0;dig_b=0;dig_c=80;Timer_9=0;}//
0006ff eba5      	LDI  R26,LOW(_Timer_9)
000700 e0b1      	LDI  R27,HIGH(_Timer_9)
000701 91ed      	LD   R30,X+
000702 91fd      	LD   R31,X+
000703 9631      	ADIW R30,1
000704 93fe      	ST   -X,R31
000705 93ee      	ST   -X,R30
000706 91a0 01b5 	LDS  R26,_Timer_9
000708 91b0 01b6 	LDS  R27,_Timer_9+1
00070a 36a4      	CPI  R26,LOW(0x64)
00070b e0e0      	LDI  R30,HIGH(0x64)
00070c 07be      	CPC  R27,R30
00070d f431      	BRNE _0x87
00070e 9260 02d5 	STS  _dig_a,R6
000710 9290 02d6 	STS  _dig_b,R9
000712 9280 02d7 	STS  _dig_c,R8
                 _0x87:
000714 91a0 01b5 	LDS  R26,_Timer_9
000716 91b0 01b6 	LDS  R27,_Timer_9+1
000718 3ca8      	CPI  R26,LOW(0xC8)
000719 e0e0      	LDI  R30,HIGH(0xC8)
00071a 07be      	CPC  R27,R30
00071b f431      	BRNE _0x88
00071c 92b0 02d5 	STS  _dig_a,R11
00071e 92a0 02d6 	STS  _dig_b,R10
000720 92d0 02d7 	STS  _dig_c,R13
                 _0x88:
000722 91a0 01b5 	LDS  R26,_Timer_9
000724 91b0 01b6 	LDS  R27,_Timer_9+1
000726 32ac      	CPI  R26,LOW(0x12C)
000727 e0e1      	LDI  R30,HIGH(0x12C)
000728 07be      	CPC  R27,R30
000729 f471      	BRNE _0x89
00072a e0e0      	LDI  R30,LOW(0)
00072b 93e0 02d5 	STS  _dig_a,R30
00072d 93e0 02d6 	STS  _dig_b,R30
00072f e5e0      	LDI  R30,LOW(80)
000730 93e0 02d7 	STS  _dig_c,R30
000732 e0e0      	LDI  R30,LOW(0)
000733 e0f0      	LDI  R31,HIGH(0)
000734 93e0 01b5 	STS  _Timer_9,R30
000736 93f0 01b6 	STS  _Timer_9+1,R31
                 ;
                 ;Number[0] = dig_a;
                 _0x89:
000738 91e0 02d5 	LDS  R30,_dig_a
00073a e0f0      	LDI  R31,0
00073b 93e0 01b7 	STS  _Number,R30
00073d 93f0 01b8 	STS  _Number+1,R31
                 ;Number[1] = dig_b;
                +
00073f eba9     +LDI R26 , LOW ( _Number + 2 )
000740 e0b1     +LDI R27 , HIGH ( _Number + 2 )
                 	__POINTW2MN _Number,2
000741 91e0 02d6 	LDS  R30,_dig_b
000743 e0f0      	LDI  R31,0
000744 93ed      	ST   X+,R30
000745 93fc      	ST   X,R31
                 ;Number[2] = dig_c;
                +
000746 ebab     +LDI R26 , LOW ( _Number + 4 )
000747 e0b1     +LDI R27 , HIGH ( _Number + 4 )
                 	__POINTW2MN _Number,4
000748 91e0 02d7 	LDS  R30,_dig_c
00074a e0f0      	LDI  R31,0
00074b 93ed      	ST   X+,R30
00074c 93fc      	ST   X,R31
                 ;Parts();
00074d dd1e      	RCALL _Parts
                 ;;}
                 ;//fade_d();
                 ;Dig_1();
                 _0x86:
00074e dae4      	RCALL _Dig_1
                 ;Dig_2();
00074f dbbd      	RCALL _Dig_2
                 ;}
                 ;
                 ;}
                 _0x70:
                 ;}
                 _0x6F:
000750 9508      	RET
                 ;#include <Time.c>
                 ;void Time1(){
                 ; 0000 0013 void Time1(){
                 _Time1:
                 ;//Timer_5++;
                 ;//if (Timer_5==3000){Timer_5=0;}
                 ;
                 ;//приостановка таймера, если услышан сигнал IR
                 ;if (Clock_Susp==1){Check_1=0;}
000751 91a0 02ca 	LDS  R26,_Clock_Susp
000753 30a1      	CPI  R26,LOW(0x1)
000754 f419      	BRNE _0x8A
000755 e0e0      	LDI  R30,LOW(0)
000756 93e0 016b 	STS  _Check_1,R30
                 ;if (Clock_Susp==0){Timer_3++;
                 _0x8A:
000758 91e0 02ca 	LDS  R30,_Clock_Susp
00075a 30e0      	CPI  R30,0
00075b f009      	BREQ PC+2
00075c c070      	RJMP _0x8B
00075d eba3      	LDI  R26,LOW(_Timer_3)
00075e e0b1      	LDI  R27,HIGH(_Timer_3)
00075f 91ed      	LD   R30,X+
000760 91fd      	LD   R31,X+
000761 9631      	ADIW R30,1
000762 93fe      	ST   -X,R31
000763 93ee      	ST   -X,R30
                 ;
                 ;if (Timer_3==Timefreq){
000764 91e0 01bd 	LDS  R30,_Timefreq
000766 91f0 01be 	LDS  R31,_Timefreq+1
000768 91a0 01b3 	LDS  R26,_Timer_3
00076a 91b0 01b4 	LDS  R27,_Timer_3+1
00076c 17ea      	CP   R30,R26
00076d 07fb      	CPC  R31,R27
00076e f4a9      	BRNE _0x8C
                 ;if(L_ON==1){Check_1++;};
00076f e0a0      	LDI  R26,0
000770 fc24      	SBRC R2,4
000771 e0a1      	LDI  R26,1
000772 30a1      	CPI  R26,LOW(0x1)
000773 f429      	BRNE _0x8D
000774 91e0 016b 	LDS  R30,_Check_1
000776 5fef      	SUBI R30,-LOW(1)
000777 93e0 016b 	STS  _Check_1,R30
                 _0x8D:
                 ;if(L_ON==0){Check_1=10;};
000779 fc24      	SBRC R2,4
00077a c003      	RJMP _0x8E
00077b e0ea      	LDI  R30,LOW(10)
00077c 93e0 016b 	STS  _Check_1,R30
                 _0x8E:
                 ;Timer_3=0;}
00077e e0e0      	LDI  R30,LOW(0)
00077f e0f0      	LDI  R31,HIGH(0)
000780 93e0 01b3 	STS  _Timer_3,R30
000782 93f0 01b4 	STS  _Timer_3+1,R31
                 ;
                 ;
                 ;if ((IR_S==1)&&(Timer_3==4000)){IR_S=0;}
                 _0x8C:
000784 e0a0      	LDI  R26,0
000785 fc23      	SBRC R2,3
000786 e0a1      	LDI  R26,1
000787 30a1      	CPI  R26,LOW(0x1)
000788 f441      	BRNE _0x90
000789 91a0 01b3 	LDS  R26,_Timer_3
00078b 91b0 01b4 	LDS  R27,_Timer_3+1
00078d 3aa0      	CPI  R26,LOW(0xFA0)
00078e e0ef      	LDI  R30,HIGH(0xFA0)
00078f 07be      	CPC  R27,R30
000790 f009      	BREQ _0x91
                 _0x90:
000791 c002      	RJMP _0x8F
                 _0x91:
000792 94e8      	CLT
000793 f823      	BLD  R2,3
                 ;
                 ;//U8=3;
                 ;//if (Check_1==10){U8=1;U9=7;null();} // включение Sp, затем эффект U8=4
                 ;//if (Check_1==45){U8=4;U9=15;null();} // включение ...
                 ;if (Check_1==1){U8=5;U9=5;null();} // включение проверки выключателей
                 _0x8F:
000794 91a0 016b 	LDS  R26,_Check_1
000796 30a1      	CPI  R26,LOW(0x1)
000797 f431      	BRNE _0x92
000798 e0e5      	LDI  R30,LOW(5)
000799 93e0 02cb 	STS  _U8,R30
00079b 93e0 02cc 	STS  _U9,R30
00079d dcc0      	RCALL _null
                 ;//if (Check_1==5){U8=6;U9=5;null();} // включение будильник
                 ;//if (Check_1==15){U8=0;U9=5;null();} // включение времени
                 ;if (Check_1==7){U8=2;U10=0;}//выключение ламп
                 _0x92:
00079e 91a0 016b 	LDS  R26,_Check_1
0007a0 30a7      	CPI  R26,LOW(0x7)
0007a1 f429      	BRNE _0x93
0007a2 e0e2      	LDI  R30,LOW(2)
0007a3 93e0 02cb 	STS  _U8,R30
0007a5 94e8      	CLT
0007a6 f820      	BLD  R2,0
                 ;if (Check_1==10){PWM_Susp=1;U10=1;PORTD|=0b00010000;}// включение ИК
                 _0x93:
0007a7 91a0 016b 	LDS  R26,_Check_1
0007a9 30aa      	CPI  R26,LOW(0xA)
0007aa f449      	BRNE _0x94
0007ab e0e1      	LDI  R30,LOW(1)
0007ac 93e0 02c9 	STS  _PWM_Susp,R30
0007ae 9468      	SET
0007af f820      	BLD  R2,0
0007b0 b3e2      	IN   R30,0x12
0007b1 e0f0      	LDI  R31,0
0007b2 61e0      	ORI  R30,0x10
0007b3 bbe2      	OUT  0x12,R30
                 ;if (Check_1==40){PWM_Susp=0;U8=3;PORTD&=~0b00010000,U9=5;null();}// выключение ИК, включение температуры
                 _0x94:
0007b4 91a0 016b 	LDS  R26,_Check_1
0007b6 32a8      	CPI  R26,LOW(0x28)
0007b7 f471      	BRNE _0x95
0007b8 e0e0      	LDI  R30,LOW(0)
0007b9 93e0 02c9 	STS  _PWM_Susp,R30
0007bb e0e3      	LDI  R30,LOW(3)
0007bc 93e0 02cb 	STS  _U8,R30
0007be b3e2      	IN   R30,0x12
0007bf e0f0      	LDI  R31,0
0007c0 7eef      	ANDI R30,LOW(0xFFEF)
0007c1 bbe2      	OUT  0x12,R30
0007c2 e0e5      	LDI  R30,LOW(5)
0007c3 93e0 02cc 	STS  _U9,R30
0007c5 dc98      	RCALL _null
                 ;if (Check_1==50){Check_1=0;}
                 _0x95:
0007c6 91a0 016b 	LDS  R26,_Check_1
0007c8 33a2      	CPI  R26,LOW(0x32)
0007c9 f419      	BRNE _0x96
0007ca e0e0      	LDI  R30,LOW(0)
0007cb 93e0 016b 	STS  _Check_1,R30
                 ;
                 ;/*
                 ;if (sec==59){sec=0;mins++;}
                 ;if (mins==59){mins=0;hour++;}
                 ;if (hour>=23){hour=1;}
                 ;
                 ;if (hour>=22){l_up=10;}
                 ;if ((hour>=11)&&(hour<22)){l_up=25;}
                 ;*/
                 ;}
                 _0x96:
                 ;}
                 _0x8B:
0007cd 9508      	RET
                 ;#include <ADC.c>
                 ;#define ADC_VREF_TYPE 1
                 ;
                 ;
                 ;unsigned char read_adc(unsigned char adc_input)
                 ; 0000 0014 {
                 _read_adc:
                 ;ADMUX=adc_input|ADC_VREF_TYPE;
                 ;	adc_input -> Y+0
0007ce 81e8      	LD   R30,Y
0007cf e0f0      	LDI  R31,0
0007d0 60e1      	ORI  R30,1
0007d1 b9e7      	OUT  0x7,R30
                 ;// Start the AD conversion
                 ;ADCSRA|=0x40;
0007d2 b1e6      	IN   R30,0x6
0007d3 e0f0      	LDI  R31,0
0007d4 64e0      	ORI  R30,0x40
0007d5 b9e6      	OUT  0x6,R30
                 ;// Wait for the AD conversion to complete
                 ;while ((ADCSRA & 0x10)==0);
                 _0x97:
0007d6 b1e6      	IN   R30,0x6
0007d7 e0f0      	LDI  R31,0
0007d8 71e0      	ANDI R30,LOW(0x10)
0007d9 f3e1      	BREQ _0x97
                 ;ADCSRA|=0x10;
0007da b1e6      	IN   R30,0x6
0007db e0f0      	LDI  R31,0
0007dc 61e0      	ORI  R30,0x10
0007dd b9e6      	OUT  0x6,R30
                 ;return ADCW;
0007de b1e4      	IN   R30,0x4
0007df b1f5      	IN   R31,0x4+1
                 ;adc1 = ADCH;
                 ;}
                 _0x2080001:
0007e0 9621      	ADIW R28,1
0007e1 9508      	RET
                 ;
                 ;/*
                 ;interrupt [ADC_INT] void adc_isr(void){
                 ;//if (U8==3){
                 ;ADMUX=287+1; //287 - стандартное выражение, 1 - номер порта
                 ;delay_us(20); //для стабилизации
                 ;ADCSRA|=0b1100000;// включение непрерывного определения
                 ;while ((ADCSRA & 0b1100000)==0);//ждем пока идет подсчет
                 ;adc1 = ADCH;//заносим данные в f1
                 ;//}
                 ;}
                 ;*/
                 ;#include <IR.c>
                 ;//interrupt [TIM2_OVF] void timer2_ovf_isr(void){
                 ;
                 ;void IR(){
                 ; 0000 0015 void IR(){
                 _IR:
                 ;PORTD&=~0b00010000;
0007e2 b3e2      	IN   R30,0x12
0007e3 e0f0      	LDI  R31,0
0007e4 7eef      	ANDI R30,LOW(0xFFEF)
0007e5 bbe2      	OUT  0x12,R30
                 ;if (IR_2==1){
0007e6 e0a0      	LDI  R26,0
0007e7 fc22      	SBRC R2,2
0007e8 e0a1      	LDI  R26,1
0007e9 30a1      	CPI  R26,LOW(0x1)
0007ea f579      	BRNE _0x9A
                 ;Timer1++;
0007eb 94c3      	INC  R12
                 ;if (PINC.0==0) {bit1++;}// подсчет всех принятых бит
0007ec 9998      	SBIC 0x13,0
0007ed c005      	RJMP _0x9B
0007ee 91e0 0168 	LDS  R30,_bit1
0007f0 5fef      	SUBI R30,-LOW(1)
0007f1 93e0 0168 	STS  _bit1,R30
                 ;if (PINC.0==1) {n++;n1[n]=bit1;Timer1=bit1=0;IR_2=0;} // как только сигнал пропадает, выводит результат подсчета.
                 _0x9B:
0007f3 e0a0      	LDI  R26,0
0007f4 9998      	SBIC 0x13,0
0007f5 e0a1      	LDI  R26,1
0007f6 30a1      	CPI  R26,LOW(0x1)
0007f7 f489      	BRNE _0x9C
0007f8 91e0 01c7 	LDS  R30,_n
0007fa 5fef      	SUBI R30,-LOW(1)
0007fb 93e0 01c7 	STS  _n,R30
0007fd e0f0      	LDI  R31,0
0007fe 53e8      	SUBI R30,LOW(-_n1)
0007ff 4ffe      	SBCI R31,HIGH(-_n1)
000800 91a0 0168 	LDS  R26,_bit1
000802 83a0      	STD  Z+0,R26
000803 e0e0      	LDI  R30,LOW(0)
000804 93e0 0168 	STS  _bit1,R30
000806 2ece      	MOV  R12,R30
000807 94e8      	CLT
000808 f822      	BLD  R2,2
                 ;//if (PINC.0==1) {printf("Timer=%d bit1=%d#",Timer1,bit1);Timer1=IR_2=bit1=0;IR_Tr=0;} // как только сигнал пропадает, выводит результат подсчета.
                 ;if (n==2){//если проходит двойную проверку
                 _0x9C:
000809 91a0 01c7 	LDS  R26,_n
00080b 30a2      	CPI  R26,LOW(0x2)
00080c f469      	BRNE _0x9D
                 ;   if (n1[1]==n1[2]){//если значение равно следующему
                +
00080d 91a0 01c9+LDS R26 , _n1 + 1
                 	__GETB2MN _n1,1
                +
00080f 91e0 01ca+LDS R30 , _n1 + 2
                 	__GETB1MN _n1,2
000811 17ea      	CP   R30,R26
000812 f039      	BREQ _0x9F
                 ;   //FreqT=Timer1;IR_Tr=n=0;
                 ;//   printf("bit1=%d#",n1[1]);IR_2=n=0;
                 ;    }
                 ;   else{
                 ;   IR_2=0;IR_Tr=n=0;
000813 94e8      	CLT
000814 f822      	BLD  R2,2
000815 e0e0      	LDI  R30,LOW(0)
000816 93e0 01c7 	STS  _n,R30
000818 93e0 02c8 	STS  _IR_Tr,R30
                 ;   ;}}
                 _0x9F:
                 ;
                 ;   }
                 _0x9D:
                 ;
                 ;
                 ;
                 ;if (IR_1==1){
                 _0x9A:
00081a e0a0      	LDI  R26,0
00081b fc21      	SBRC R2,1
00081c e0a1      	LDI  R26,1
00081d 30a1      	CPI  R26,LOW(0x1)
00081e f009      	BREQ PC+2
00081f c0f1      	RJMP _0xA0
                 ;
                 ;// Place your code here
                 ;//PORTB^=0b00000100;
                 ;Timer1++;
000820 94c3      	INC  R12
                 ;if (PINC.0==0) {bit1++;}
000821 9998      	SBIC 0x13,0
000822 c005      	RJMP _0xA1
000823 91e0 0168 	LDS  R30,_bit1
000825 5fef      	SUBI R30,-LOW(1)
000826 93e0 0168 	STS  _bit1,R30
                 ;if (PINC.0==1) {bit0++;}
                 _0xA1:
000828 e0a0      	LDI  R26,0
000829 9998      	SBIC 0x13,0
00082a e0a1      	LDI  R26,1
00082b 30a1      	CPI  R26,LOW(0x1)
00082c f429      	BRNE _0xA2
00082d 91e0 0169 	LDS  R30,_bit0
00082f 5fef      	SUBI R30,-LOW(1)
000830 93e0 0169 	STS  _bit0,R30
                 ;if (Timer1==FreqT){
                 _0xA2:
000832 91e0 0170 	LDS  R30,_FreqT
000834 15ec      	CP   R30,R12
000835 f009      	BREQ PC+2
000836 c0da      	RJMP _0xA3
                 ;Timer1=0;
000837 24cc      	CLR  R12
                 ;if (bit1>bit0){// если все (25) битов были положительные, то добавляем 1
000838 91e0 0169 	LDS  R30,_bit0
00083a 91a0 0168 	LDS  R26,_bit1
00083c 17ea      	CP   R30,R26
00083d f4a0      	BRSH _0xA4
                 ;//if(bit1+1<FreqT){FreqT=bit1;IR_1=bit1=bit0=Timer1=0;IR_Tr=1;}else{IR_Tr=0;}// если было принято более 2-х нулей в еденицах
                 ;//if(bit1==FreqT){FreqT++;}
                 ;bit1=bit0=0;
00083e e0e0      	LDI  R30,LOW(0)
00083f 93e0 0169 	STS  _bit0,R30
000841 93e0 0168 	STS  _bit1,R30
                 ;//bit01=0;
                 ;//bit10++;
                 ;d=d<<1; //сдвигаем переменную для битов
000843 91e0 0160 	LDS  R30,_d
000845 91f0 0161 	LDS  R31,_d+1
000847 0fee      	LSL  R30
000848 1fff      	ROL  R31
000849 93e0 0160 	STS  _d,R30
00084b 93f0 0161 	STS  _d+1,R31
                 ;d|=1;//добавляем в конец строки положительный бит
00084d 60e1      	ORI  R30,1
00084e 93e0 0160 	STS  _d,R30
000850 93f0 0161 	STS  _d+1,R31
                 ;//putchar('1');
                 ;}
                 ;if (bit0>bit1){
                 _0xA4:
000852 91e0 0168 	LDS  R30,_bit1
000854 91a0 0169 	LDS  R26,_bit0
000856 17ea      	CP   R30,R26
000857 f4a0      	BRSH _0xA5
                 ;//if(bit0+1<FreqT){FreqT=bit0;IR_1=bit1=bit0=Timer1=0;IR_Tr=1;}else{IR_Tr=0;}// если был принят 0 в еденицах
                 ;bit0=bit1=0;
000858 e0e0      	LDI  R30,LOW(0)
000859 93e0 0168 	STS  _bit1,R30
00085b 93e0 0169 	STS  _bit0,R30
                 ;//bit01++;
                 ;//bit10=0;
                 ;d=d<<1; //сдвигаем переменную для битов
00085d 91e0 0160 	LDS  R30,_d
00085f 91f0 0161 	LDS  R31,_d+1
000861 0fee      	LSL  R30
000862 1fff      	ROL  R31
000863 93e0 0160 	STS  _d,R30
000865 93f0 0161 	STS  _d+1,R31
                 ;d&=~1;//добавляем в конец строки нулевой бит
000867 7fee      	ANDI R30,LOW(0xFFFE)
000868 93e0 0160 	STS  _d,R30
00086a 93f0 0161 	STS  _d+1,R31
                 ;//putchar('0');
                 ;}
                 ;shiftd++;
                 _0xA5:
00086c 91e0 016a 	LDS  R30,_shiftd
00086e 5fef      	SUBI R30,-LOW(1)
00086f 93e0 016a 	STS  _shiftd,R30
                 ;////////////////////////////
                 ;//if ((bit01>=5)||(bit10>=5)){d=d1=d2=d3=shiftd=0;bit10=bit01=0;putchar('n');IR_1=0;bitEr1=bitEr0=0;IR_Tr=1;};//FreqT--;если принято 4-е нуля подряд то таймер останавливается.
                 ;if ((shiftd==adress2)){d = 0;}       //9
000871 91e0 016c 	LDS  R30,_adress2
000873 91a0 016a 	LDS  R26,_shiftd
000875 17ea      	CP   R30,R26
000876 f431      	BRNE _0xA6
000877 e0e0      	LDI  R30,LOW(0)
000878 e0f0      	LDI  R31,HIGH(0)
000879 93e0 0160 	STS  _d,R30
00087b 93f0 0161 	STS  _d+1,R31
                 ;if ((shiftd==adress3)){d1 = d;d=0;}//15
                 _0xA6:
00087d 91e0 016d 	LDS  R30,_adress3
00087f 91a0 016a 	LDS  R26,_shiftd
000881 17ea      	CP   R30,R26
000882 f471      	BRNE _0xA7
000883 91e0 0160 	LDS  R30,_d
000885 91f0 0161 	LDS  R31,_d+1
000887 93e0 0162 	STS  _d1,R30
000889 93f0 0163 	STS  _d1+1,R31
00088b e0e0      	LDI  R30,LOW(0)
00088c e0f0      	LDI  R31,HIGH(0)
00088d 93e0 0160 	STS  _d,R30
00088f 93f0 0161 	STS  _d+1,R31
                 ;if ((shiftd==adress4)){d = 0;}//16
                 _0xA7:
000891 91e0 016e 	LDS  R30,_adress4
000893 91a0 016a 	LDS  R26,_shiftd
000895 17ea      	CP   R30,R26
000896 f431      	BRNE _0xA8
000897 e0e0      	LDI  R30,LOW(0)
000898 e0f0      	LDI  R31,HIGH(0)
000899 93e0 0160 	STS  _d,R30
00089b 93f0 0161 	STS  _d+1,R31
                 ;//if ((shiftd==adress5)){d2 = d;d=0;}//20
                 ;//if ((shiftd==adress6)){d = 0;}     //21
                 ;if ((shiftd>=adress7)){d3=d1+d2+d;   //26
                 _0xA8:
00089d 91e0 016f 	LDS  R30,_adress7
00089f 91a0 016a 	LDS  R26,_shiftd
0008a1 17ae      	CP   R26,R30
0008a2 f408      	BRSH PC+2
0008a3 c06d      	RJMP _0xA9
0008a4 91e0 0164 	LDS  R30,_d2
0008a6 91f0 0165 	LDS  R31,_d2+1
0008a8 91a0 0162 	LDS  R26,_d1
0008aa 91b0 0163 	LDS  R27,_d1+1
0008ac 0fea      	ADD  R30,R26
0008ad 1ffb      	ADC  R31,R27
0008ae 91a0 0160 	LDS  R26,_d
0008b0 91b0 0161 	LDS  R27,_d+1
0008b2 0fea      	ADD  R30,R26
0008b3 1ffb      	ADC  R31,R27
0008b4 93e0 0166 	STS  _d3,R30
0008b6 93f0 0167 	STS  _d3+1,R31
                 ;
                 ;//putchar('#');
                 ;//printf("#d1=%d d2=%d d3=%d#FreqT=%d IR_Tr=%d#",d1,d2,d3,FreqT,IR_Tr);
                 ;//printf("#d=%d#",d3);
                 ;
                 ;IR_1=0;
0008b8 94e8      	CLT
0008b9 f821      	BLD  R2,1
                 ;//printf("#d3=%d FreqT=%d",FreqT);
                 ;//putchar('#');
                 ;
                 ;//if (((d3==-19095)||(d3==23188))&&(Timer2==0)){PORTD^=0b00000100;putchar('A');}
                 ;//if (((d3==-19098)||(d3==23187))&&(Timer2==0)){PORTD^=0b00001000;putchar('B');}
                 ;
                 ;
                 ;
                 ;#include <IR_Driver.c>
                 ;if (d3==832){PORTD^=0b00000100;Bee=7;}//принудительное включение выключателей.
0008ba 91a0 0166 	LDS  R26,_d3
0008bc 91b0 0167 	LDS  R27,_d3+1
0008be 34a0      	CPI  R26,LOW(0x340)
0008bf e0e3      	LDI  R30,HIGH(0x340)
0008c0 07be      	CPC  R27,R30
0008c1 f451      	BRNE _0xAA
0008c2 b3e2      	IN   R30,0x12
0008c3 e0f0      	LDI  R31,0
0008c4 e0a4      	LDI  R26,LOW(4)
0008c5 e0b0      	LDI  R27,HIGH(4)
0008c6 27ea      	EOR  R30,R26
0008c7 27fb      	EOR  R31,R27
0008c8 bbe2      	OUT  0x12,R30
0008c9 e0e7      	LDI  R30,LOW(7)
0008ca 93e0 02cd 	STS  _Bee,R30
                 ;if (d3==864){PORTD^=0b00001000;Bee=7;}
                 _0xAA:
0008cc 91a0 0166 	LDS  R26,_d3
0008ce 91b0 0167 	LDS  R27,_d3+1
0008d0 36a0      	CPI  R26,LOW(0x360)
0008d1 e0e3      	LDI  R30,HIGH(0x360)
0008d2 07be      	CPC  R27,R30
0008d3 f451      	BRNE _0xAB
0008d4 b3e2      	IN   R30,0x12
0008d5 e0f0      	LDI  R31,0
0008d6 e0a8      	LDI  R26,LOW(8)
0008d7 e0b0      	LDI  R27,HIGH(8)
0008d8 27ea      	EOR  R30,R26
0008d9 27fb      	EOR  R31,R27
0008da bbe2      	OUT  0x12,R30
0008db e0e7      	LDI  R30,LOW(7)
0008dc 93e0 02cd 	STS  _Bee,R30
                 ;if (d3==840){L_ON^=1;Bee=10;}
                 _0xAB:
0008de 91a0 0166 	LDS  R26,_d3
0008e0 91b0 0167 	LDS  R27,_d3+1
0008e2 34a8      	CPI  R26,LOW(0x348)
0008e3 e0e3      	LDI  R30,HIGH(0x348)
0008e4 07be      	CPC  R27,R30
0008e5 f469      	BRNE _0xAC
0008e6 e0e0      	LDI  R30,0
0008e7 fc24      	SBRC R2,4
0008e8 e0e1      	LDI  R30,1
0008e9 e0f0      	LDI  R31,0
0008ea e0a1      	LDI  R26,LOW(1)
0008eb e0b0      	LDI  R27,HIGH(1)
0008ec 27ea      	EOR  R30,R26
0008ed 27fb      	EOR  R31,R27
0008ee d11e      	RCALL __BSTB1
0008ef f824      	BLD  R2,4
0008f0 e0ea      	LDI  R30,LOW(10)
0008f1 93e0 02cd 	STS  _Bee,R30
                 ;/*
                 ;if (d3==633){Clock_Susp=1;Bee=20;U6=1;}
                 ;if (d3==18832){Clock_Susp=1;Bee=20;U6=2;}
                 ;
                 ;if (d3==21872){Clock_Susp=0;putchar('C');Bee=30;TD=0;U6=0;}
                 ;
                 ;
                 ;if (Clock_Susp==1){
                 ;if (d3==21160){U5=1;U7=1;Bee=5;}
                 ;if (d3==21136){U5=2;U7=1;Bee=6;}
                 ;
                 ;if ((U7==1)&&(U6==1)){//установка времени
                 ;TD++;U7=0;
                 ;if (TD==1){hour=U5*10;}
                 ;if (TD==2){hour=hour+U5;}
                 ;if (TD==3){mins=U5*10;}
                 ;if (TD==4){mins=mins+U5;sec=TD=U6=0;
                 ;Clock_Susp=0;}
                 ;}
                 ;if ((U7==1)&&(U6==2)){//установка будильника
                 ;TD++;U7=0;
                 ;if (TD==1){hour_a1=U5*10;}
                 ;if (TD==2){hour_a1=hour_a1+U5;}
                 ;if (TD==3){mins_a1=U5*10;}
                 ;if (TD==4){mins_a1=mins_a1+U5;sec_a1=TD=U6=0;
                 ;Clock_Susp=0;}
                 ;
                 ;
                 ;}
                 ;}
                 ;*/
                 ;
                 ;
                 ;d=d1=d2=d3=shiftd=bitEr0=bitEr1=0;
                 _0xAC:
0008f3 e0e0      	LDI  R30,LOW(0)
0008f4 93e0 01c0 	STS  _bitEr1,R30
0008f6 93e0 01c1 	STS  _bitEr0,R30
0008f8 93e0 016a 	STS  _shiftd,R30
0008fa e0f0      	LDI  R31,0
0008fb 93e0 0166 	STS  _d3,R30
0008fd 93f0 0167 	STS  _d3+1,R31
0008ff 93e0 0164 	STS  _d2,R30
000901 93f0 0165 	STS  _d2+1,R31
000903 93e0 0162 	STS  _d1,R30
000905 93f0 0163 	STS  _d1+1,R31
000907 93e0 0160 	STS  _d,R30
000909 93f0 0161 	STS  _d+1,R31
                 ;//TCCR2&=~0x01;
                 ;PORTD|=0b00010000;
00090b b3e2      	IN   R30,0x12
00090c e0f0      	LDI  R31,0
00090d 61e0      	ORI  R30,0x10
00090e bbe2      	OUT  0x12,R30
                 ;//TCCR0|=0x01;
                 ;IR_S=1;
00090f 9468      	SET
000910 f823      	BLD  R2,3
                 ;}
                 ;}
                 _0xA9:
                 ;}
                 _0xA3:
                 ;}
                 _0xA0:
000911 9508      	RET
                 ;#include <Beep.c>
                 ;void Beep (){
                 ; 0000 0016 void Beep (){
                 _Beep:
                 ;if (Bee>1){
000912 91a0 02cd 	LDS  R26,_Bee
000914 30a2      	CPI  R26,LOW(0x2)
000915 f138      	BRLO _0xAD
                 ;Timer_7++;
000916 91e0 01c5 	LDS  R30,_Timer_7
000918 5fef      	SUBI R30,-LOW(1)
000919 93e0 01c5 	STS  _Timer_7,R30
                 ;if (Timer_7>=Bee){
00091b 91e0 02cd 	LDS  R30,_Bee
00091d 91a0 01c5 	LDS  R26,_Timer_7
00091f 17ae      	CP   R26,R30
000920 f078      	BRLO _0xAE
                 ;Timer_7=0;
000921 e0e0      	LDI  R30,LOW(0)
000922 93e0 01c5 	STS  _Timer_7,R30
                 ;Timer_8++;
000924 91e0 01c6 	LDS  R30,_Timer_8
000926 5fef      	SUBI R30,-LOW(1)
000927 93e0 01c6 	STS  _Timer_8,R30
                 ;PORTC^=0b00000100;
000929 b3e5      	IN   R30,0x15
00092a e0f0      	LDI  R31,0
00092b e0a4      	LDI  R26,LOW(4)
00092c e0b0      	LDI  R27,HIGH(4)
00092d 27ea      	EOR  R30,R26
00092e 27fb      	EOR  R31,R27
00092f bbe5      	OUT  0x15,R30
                 ;}
                 ;if (Timer_8>120){
                 _0xAE:
000930 91a0 01c6 	LDS  R26,_Timer_8
000932 37a9      	CPI  R26,LOW(0x79)
000933 f048      	BRLO _0xAF
                 ;Timer_8=Bee=0;
000934 e0e0      	LDI  R30,LOW(0)
000935 93e0 02cd 	STS  _Bee,R30
000937 93e0 01c6 	STS  _Timer_8,R30
                 ;PORTC&=~0b00000100;
000939 b3e5      	IN   R30,0x15
00093a e0f0      	LDI  R31,0
00093b 7feb      	ANDI R30,LOW(0xFFFB)
00093c bbe5      	OUT  0x15,R30
                 ;}
                 ;}
                 _0xAF:
                 ;}
                 _0xAD:
00093d 9508      	RET
                 ;interrupt [TIM0_OVF] void timer0_ovf_isr(void)
                 ; 0000 0018 {
                 _timer0_ovf_isr:
00093e 920a      	ST   -Y,R0
00093f 921a      	ST   -Y,R1
000940 92fa      	ST   -Y,R15
000941 936a      	ST   -Y,R22
000942 937a      	ST   -Y,R23
000943 938a      	ST   -Y,R24
000944 939a      	ST   -Y,R25
000945 93aa      	ST   -Y,R26
000946 93ba      	ST   -Y,R27
000947 93ea      	ST   -Y,R30
000948 93fa      	ST   -Y,R31
000949 b7ef      	IN   R30,SREG
00094a 93ea      	ST   -Y,R30
                 ; 0000 0019 IR();
00094b de96      	RCALL _IR
                 ; 0000 001A if (IR_1==0){
00094c fc21      	SBRC R2,1
00094d c003      	RJMP _0xB0
                 ; 0000 001B Dig();
00094e dbff      	RCALL _Dig
                 ; 0000 001C Time1();
00094f de01      	RCALL _Time1
                 ; 0000 001D Beep();
000950 dfc1      	RCALL _Beep
                 ; 0000 001E }
                 ; 0000 001F }
                 _0xB0:
000951 91e9      	LD   R30,Y+
000952 bfef      	OUT  SREG,R30
000953 91f9      	LD   R31,Y+
000954 91e9      	LD   R30,Y+
000955 91b9      	LD   R27,Y+
000956 91a9      	LD   R26,Y+
000957 9199      	LD   R25,Y+
000958 9189      	LD   R24,Y+
000959 9179      	LD   R23,Y+
00095a 9169      	LD   R22,Y+
00095b 90f9      	LD   R15,Y+
00095c 9019      	LD   R1,Y+
00095d 9009      	LD   R0,Y+
00095e 9518      	RETI
                 ;interrupt [TIM1_OVF] void timer1_ovf_isr(void)
                 ; 0000 0021 {
                 _timer1_ovf_isr:
                 ; 0000 0022 
                 ; 0000 0023 
                 ; 0000 0024 }
00095f 9518      	RETI
                 ;
                 ;// Declare your global variables here
                 ;void main(void)   // в этом проэкте  PB - "+", PD 7,6,5 - "-", PC0 - IR, PC1 - Temp;PD2,3 -EL;
                 ; 0000 0028 {
                 _main:
                 ; 0000 0029 
                 ; 0000 002A PORTB=0x00;
000960 e0e0      	LDI  R30,LOW(0)
000961 bbe8      	OUT  0x18,R30
                 ; 0000 002B DDRB=0xff;
000962 efef      	LDI  R30,LOW(255)
000963 bbe7      	OUT  0x17,R30
                 ; 0000 002C PORTC=0b00000000;
000964 e0e0      	LDI  R30,LOW(0)
000965 bbe5      	OUT  0x15,R30
                 ; 0000 002D DDRC=0b11111100;
000966 efec      	LDI  R30,LOW(252)
000967 bbe4      	OUT  0x14,R30
                 ; 0000 002E PORTD=0b00000000;
000968 e0e0      	LDI  R30,LOW(0)
000969 bbe2      	OUT  0x12,R30
                 ; 0000 002F DDRD=0b11111100;
00096a efec      	LDI  R30,LOW(252)
00096b bbe1      	OUT  0x11,R30
                 ; 0000 0030 TCCR0=0x01;
00096c e0e1      	LDI  R30,LOW(1)
00096d bfe3      	OUT  0x33,R30
                 ; 0000 0031 
                 ; 0000 0032 /*!!!!!!!!!!!!!!!!!!!!!!!!!!!
                 ; 0000 0033 UCSRA=0x00;
                 ; 0000 0034 UCSRB=0x18;
                 ; 0000 0035 UCSRC=0x86;
                 ; 0000 0036 UBRRH=0x00;
                 ; 0000 0037 UBRRL=0x33;
                 ; 0000 0038 */
                 ; 0000 0039 
                 ; 0000 003A TIMSK|=0x01; //Timer0
00096e b7e9      	IN   R30,0x39
00096f e0f0      	LDI  R31,0
000970 60e1      	ORI  R30,1
000971 bfe9      	OUT  0x39,R30
                 ; 0000 003B //TIMSK|=0x40; //Timer2
                 ; 0000 003C //TIMSK|=0x04; //Timer1
                 ; 0000 003D 
                 ; 0000 003E 
                 ; 0000 003F ACSR=0x80;
000972 e8e0      	LDI  R30,LOW(128)
000973 b9e8      	OUT  0x8,R30
                 ; 0000 0040 ADMUX=0b00000001;
000974 e0e1      	LDI  R30,LOW(1)
000975 b9e7      	OUT  0x7,R30
                 ; 0000 0041 ADCSRA=0x84;
000976 e8e4      	LDI  R30,LOW(132)
000977 b9e6      	OUT  0x6,R30
                 ; 0000 0042 
                 ; 0000 0043 #asm("sei")
000978 9478      	sei
                 ; 0000 0044 
                 ; 0000 0045 while (1)
                 _0xB1:
                 ; 0000 0046 {
                 ; 0000 0047 
                 ; 0000 0048 #include <While.c>
                 ;if ((U8==3)&&(U10==0)){
000979 91a0 02cb 	LDS  R26,_U8
00097b 30a3      	CPI  R26,LOW(0x3)
00097c f429      	BRNE _0xB5
00097d e0a0      	LDI  R26,0
00097e fc20      	SBRC R2,0
00097f e0a1      	LDI  R26,1
000980 30a0      	CPI  R26,LOW(0x0)
000981 f009      	BREQ _0xB6
                 _0xB5:
000982 c00c      	RJMP _0xB4
                 _0xB6:
                 ;adc1 = 255-14-read_adc(1);
000983 e0e1      	LDI  R30,LOW(1)
000984 93ea      	ST   -Y,R30
000985 de48      	RCALL _read_adc
000986 e0f0      	LDI  R31,0
000987 efa1      	LDI  R26,LOW(241)
000988 e0b0      	LDI  R27,HIGH(241)
000989 d07c      	RCALL __SWAPW12
00098a 1bea      	SUB  R30,R26
00098b 93e0 02d8 	STS  _adc1,R30
                 ;U10=1;
00098d 9468      	SET
00098e f820      	BLD  R2,0
                 ;}
                 ;
                 ;//adc1 = 255-read_adc(1);}
                 ;
                 ;if ((PINC.0==0)&&(PWM_Susp==1)&&(IR_S==0))
                 _0xB4:
00098f e0a0      	LDI  R26,0
000990 9998      	SBIC 0x13,0
000991 e0a1      	LDI  R26,1
000992 30a0      	CPI  R26,LOW(0x0)
000993 f449      	BRNE _0xB8
000994 91a0 02c9 	LDS  R26,_PWM_Susp
000996 30a1      	CPI  R26,LOW(0x1)
000997 f429      	BRNE _0xB8
000998 e0a0      	LDI  R26,0
000999 fc23      	SBRC R2,3
00099a e0a1      	LDI  R26,1
00099b 30a0      	CPI  R26,LOW(0x0)
00099c f009      	BREQ _0xB9
                 _0xB8:
00099d c002      	RJMP _0xB7
                 _0xB9:
                 ;{
                 ;IR_1=1;
00099e 9468      	SET
00099f f821      	BLD  R2,1
                 ;//if(IR_Tr==0){IR_1=1;}
                 ;//if(IR_Tr==1){IR_2=1;}
                 ;}
                 ;
                 ; 0000 0049 
                 ; 0000 004A }
                 _0xB7:
0009a0 cfd8      	RJMP _0xB1
                 ; 0000 004B }
                 _0xBA:
0009a1 cfff      	RJMP _0xBA
                 
                 	.CSEG
                 
                 	.DSEG
                 
                 	.CSEG
                 _rand:
0009a2 91e0 02d9 	LDS  R30,__seed_G100
0009a4 91f0 02da 	LDS  R31,__seed_G100+1
0009a6 9160 02db 	LDS  R22,__seed_G100+2
0009a8 9170 02dc 	LDS  R23,__seed_G100+3
                +
0009aa e6ad     +LDI R26 , LOW ( 0x41C64E6D )
0009ab e4be     +LDI R27 , HIGH ( 0x41C64E6D )
0009ac ec86     +LDI R24 , BYTE3 ( 0x41C64E6D )
0009ad e491     +LDI R25 , BYTE4 ( 0x41C64E6D )
                 	__GETD2N 0x41C64E6D
0009ae d020      	RCALL __MULD12U
                +
0009af 59ee     +SUBI R30 , LOW ( - 30562 )
0009b0 48f8     +SBCI R31 , HIGH ( - 30562 )
0009b1 4f6f     +SBCI R22 , BYTE3 ( - 30562 )
0009b2 4f7f     +SBCI R23 , BYTE4 ( - 30562 )
                 	__ADDD1N 30562
0009b3 93e0 02d9 	STS  __seed_G100,R30
0009b5 93f0 02da 	STS  __seed_G100+1,R31
0009b7 9360 02db 	STS  __seed_G100+2,R22
0009b9 9370 02dc 	STS  __seed_G100+3,R23
0009bb 01fb      	movw r30,r22
0009bc 77ff      	andi r31,0x7F
0009bd 9508      	RET
                 
                 	.CSEG
                 
                 	.CSEG
                 
                 	.CSEG
                 
                 	.DSEG
                 _d:
000160           	.BYTE 0x2
                 _d1:
000162           	.BYTE 0x2
                 _d2:
000164           	.BYTE 0x2
                 _d3:
000166           	.BYTE 0x2
                 _bit1:
000168           	.BYTE 0x1
                 _bit0:
000169           	.BYTE 0x1
                 _shiftd:
00016a           	.BYTE 0x1
                 _Check_1:
00016b           	.BYTE 0x1
                 _adress2:
00016c           	.BYTE 0x1
                 _adress3:
00016d           	.BYTE 0x1
                 _adress4:
00016e           	.BYTE 0x1
                 _adress7:
00016f           	.BYTE 0x1
                 _FreqT:
000170           	.BYTE 0x1
                 _U1:
000171           	.BYTE 0x1
                 _U2:
000172           	.BYTE 0x20
                 _sig1:
000192           	.BYTE 0x20
                 _U3:
0001b2           	.BYTE 0x1
                 _Timer_3:
0001b3           	.BYTE 0x2
                 _Timer_9:
0001b5           	.BYTE 0x2
                 _Number:
0001b7           	.BYTE 0x6
                 _Timefreq:
0001bd           	.BYTE 0x2
                 _U4:
0001bf           	.BYTE 0x1
                 _bitEr1:
0001c0           	.BYTE 0x1
                 _bitEr0:
0001c1           	.BYTE 0x1
                 _Timer_1:
0001c2           	.BYTE 0x1
                 _Timer_2:
0001c3           	.BYTE 0x1
                 _Timer_4:
0001c4           	.BYTE 0x1
                 _Timer_7:
0001c5           	.BYTE 0x1
                 _Timer_8:
0001c6           	.BYTE 0x1
                 _n:
0001c7           	.BYTE 0x1
                 _n1:
0001c8           	.BYTE 0xFF
                 _n2:
0002c7           	.BYTE 0x1
                 _IR_Tr:
0002c8           	.BYTE 0x1
                 _PWM_Susp:
0002c9           	.BYTE 0x1
                 _Clock_Susp:
0002ca           	.BYTE 0x1
                 _U8:
0002cb           	.BYTE 0x1
                 _U9:
0002cc           	.BYTE 0x1
                 _Bee:
0002cd           	.BYTE 0x1
                 _Dig1:
0002ce           	.BYTE 0x1
                 _Dig2:
0002cf           	.BYTE 0x1
                 _Num2:
0002d0           	.BYTE 0x3
                 _l_up:
0002d3           	.BYTE 0x1
                 _l_dwn:
0002d4           	.BYTE 0x1
                 _dig_a:
0002d5           	.BYTE 0x1
                 _dig_b:
0002d6           	.BYTE 0x1
                 _dig_c:
0002d7           	.BYTE 0x1
                 _adc1:
0002d8           	.BYTE 0x1
                 __seed_G100:
0002d9           	.BYTE 0x4
                 _p_S1030024:
0002dd           	.BYTE 0x2
                 
                 	.CSEG
                 
                 	.CSEG
                 __ANEGW1:
0009be 95f1      	NEG  R31
0009bf 95e1      	NEG  R30
0009c0 40f0      	SBCI R31,0
0009c1 9508      	RET
                 
                 __LSLW2:
0009c2 0fee      	LSL  R30
0009c3 1fff      	ROL  R31
0009c4 0fee      	LSL  R30
0009c5 1fff      	ROL  R31
0009c6 9508      	RET
                 
                 __MULW12U:
0009c7 9ffa      	MUL  R31,R26
0009c8 2df0      	MOV  R31,R0
0009c9 9feb      	MUL  R30,R27
0009ca 0df0      	ADD  R31,R0
0009cb 9fea      	MUL  R30,R26
0009cc 2de0      	MOV  R30,R0
0009cd 0df1      	ADD  R31,R1
0009ce 9508      	RET
                 
                 __MULD12U:
0009cf 9f7a      	MUL  R23,R26
0009d0 2d70      	MOV  R23,R0
0009d1 9f6b      	MUL  R22,R27
0009d2 0d70      	ADD  R23,R0
0009d3 9ff8      	MUL  R31,R24
0009d4 0d70      	ADD  R23,R0
0009d5 9fe9      	MUL  R30,R25
0009d6 0d70      	ADD  R23,R0
0009d7 9f6a      	MUL  R22,R26
0009d8 2d60      	MOV  R22,R0
0009d9 0d71      	ADD  R23,R1
0009da 9ffb      	MUL  R31,R27
0009db 0d60      	ADD  R22,R0
0009dc 1d71      	ADC  R23,R1
0009dd 9fe8      	MUL  R30,R24
0009de 0d60      	ADD  R22,R0
0009df 1d71      	ADC  R23,R1
0009e0 2788      	CLR  R24
0009e1 9ffa      	MUL  R31,R26
0009e2 2df0      	MOV  R31,R0
0009e3 0d61      	ADD  R22,R1
0009e4 1f78      	ADC  R23,R24
0009e5 9feb      	MUL  R30,R27
0009e6 0df0      	ADD  R31,R0
0009e7 1d61      	ADC  R22,R1
0009e8 1f78      	ADC  R23,R24
0009e9 9fea      	MUL  R30,R26
0009ea 2de0      	MOV  R30,R0
0009eb 0df1      	ADD  R31,R1
0009ec 1f68      	ADC  R22,R24
0009ed 1f78      	ADC  R23,R24
0009ee 9508      	RET
                 
                 __MULW12:
0009ef d004      	RCALL __CHKSIGNW
0009f0 dfd6      	RCALL __MULW12U
0009f1 f40e      	BRTC __MULW121
0009f2 dfcb      	RCALL __ANEGW1
                 __MULW121:
0009f3 9508      	RET
                 
                 __CHKSIGNW:
0009f4 94e8      	CLT
0009f5 fff7      	SBRS R31,7
0009f6 c002      	RJMP __CHKSW1
0009f7 dfc6      	RCALL __ANEGW1
0009f8 9468      	SET
                 __CHKSW1:
0009f9 ffb7      	SBRS R27,7
0009fa c006      	RJMP __CHKSW2
0009fb 95a0      	COM  R26
0009fc 95b0      	COM  R27
0009fd 9611      	ADIW R26,1
0009fe f800      	BLD  R0,0
0009ff 9403      	INC  R0
000a00 fa00      	BST  R0,0
                 __CHKSW2:
000a01 9508      	RET
                 
                 __GETW1P:
000a02 91ed      	LD   R30,X+
000a03 91fc      	LD   R31,X
000a04 9711      	SBIW R26,1
000a05 9508      	RET
                 
                 __SWAPW12:
000a06 2e1b      	MOV  R1,R27
000a07 2fbf      	MOV  R27,R31
000a08 2df1      	MOV  R31,R1
                 
                 __SWAPB12:
000a09 2e1a      	MOV  R1,R26
000a0a 2fae      	MOV  R26,R30
000a0b 2de1      	MOV  R30,R1
000a0c 9508      	RET
                 
                 __BSTB1:
000a0d 94e8      	CLT
000a0e 23ee      	TST  R30
000a0f f009      	BREQ PC+2
000a10 9468      	SET
000a11 9508      	RET
                 
                 ;END OF CODE MARKER
                 __END_OF_CODE:


RESOURCE USE INFORMATION
------------------------

Notice:
The register and instruction counts are symbol table hit counts,
and hence implicitly used resources are not counted, eg, the
'lpm' instruction without operands implicitly uses r0 and z,
none of which are counted.

x,y,z are separate entities in the symbol table and are
counted separately from r26..r31 here.

.dseg memory usage only counts static data declared with .byte

ATmega8L register use summary:
r0 :  28 r1 :  14 r2 :  20 r3 :   0 r4 :   1 r5 :   1 r6 :   1 r7 :   1 
r8 :   1 r9 :   1 r10:   1 r11:   1 r12:   5 r13:   1 r14:   0 r15:   2 
r16:   0 r17:   0 r18:   0 r19:   0 r20:   0 r21:   0 r22:  18 r23:  16 
r24:  17 r25:   6 r26: 465 r27: 234 r28:   2 r29:   1 r30: 872 r31: 389 
x  : 134 y  :  26 z  :  18 
Registers used: 27 out of 35 (77.1%)

ATmega8L instruction use summary:
adc   :  86 add   :  90 adiw  :  11 and   :   0 andi  :  18 asr   :   0 
bclr  :   0 bld   :  12 brbc  :   0 brbs  :   0 brcc  :   0 brcs  :   0 
break :   0 breq  :  19 brge  :   0 brhc  :   0 brhs  :   0 brid  :   0 
brie  :   0 brlo  :   4 brlt  :   5 brmi  :   0 brne  :  85 brpl  :   1 
brsh  :  17 brtc  :   1 brts  :   0 brvc  :   0 brvs  :   0 bset  :   0 
bst   :   1 cbi   :   0 cbr   :   0 clc   :   0 clh   :   0 cli   :   1 
cln   :   0 clr   :   4 cls   :   0 clt   :   8 clv   :   0 clz   :   0 
com   :   2 cp    :  21 cpc   :  41 cpi   :  99 cpse  :   0 dec   :   1 
des   :   0 eor   :   8 fmul  :   0 fmuls :   0 fmulsu:   0 icall :   0 
ijmp  :   0 in    :  38 inc   :   3 ld    :  55 ldd   :   0 ldi   : 553 
lds   : 256 lpm   :   7 lsl   :  18 lsr   :   0 mov   :  16 movw  :  13 
mul   :  13 muls  :   0 mulsu :   0 neg   :   2 nop   :   0 or    :   0 
ori   :  18 out   :  54 pop   :   0 push  :   0 rcall :  49 ret   :  22 
reti  :   2 rjmp  :  84 rol   :  18 ror   :   0 sbc   :   0 sbci  :  18 
sbi   :   0 sbic  :   7 sbis  :   0 sbiw  :  11 sbr   :   0 sbrc  :   9 
sbrs  :   2 sec   :   0 seh   :   0 sei   :   1 sen   :   0 ser   :   0 
ses   :   0 set   :   6 sev   :   0 sez   :   0 sleep :   0 spm   :   0 
st    : 107 std   :   9 sts   : 159 sub   :   1 subi  :  33 swap  :   0 
tst   :   2 wdr   :   0 
Instructions used: 53 out of 110 (48.2%)

ATmega8L memory use summary [bytes]:
Segment   Begin    End      Code   Data   Used    Size   Use%
---------------------------------------------------------------
[.cseg] 0x000000 0x001424   5072     84   5156    8192  62.9%
[.dseg] 0x000060 0x0002df      0    383    383    1024  37.4%
[.eseg] 0x000000 0x000000      0      0      0     512   0.0%

Assembly complete, 0 errors, 21 warnings
