
;CodeVisionAVR C Compiler V2.03.4 Standard
;(C) Copyright 1998-2008 Pavel Haiduc, HP InfoTech s.r.l.
;http://www.hpinfotech.com

;Chip type              : ATmega8
;Program type           : Application
;Clock frequency        : 8,000000 MHz
;Memory model           : Small
;Optimize for           : Speed
;(s)printf features     : int, width
;(s)scanf features      : int, width
;External RAM size      : 0
;Data Stack size        : 256 byte(s)
;Heap size              : 0 byte(s)
;Promote char to int    : No
;char is unsigned       : Yes
;global const stored in FLASH  : Yes
;8 bit enums            : No
;Enhanced core instructions    : On
;Smart register allocation : On
;Automatic register allocation : On

	#pragma AVRPART ADMIN PART_NAME ATmega8
	#pragma AVRPART MEMORY PROG_FLASH 8192
	#pragma AVRPART MEMORY EEPROM 512
	#pragma AVRPART MEMORY INT_SRAM SIZE 1024
	#pragma AVRPART MEMORY INT_SRAM START_ADDR 0x60

	.LISTMAC
	.EQU UDRE=0x5
	.EQU RXC=0x7
	.EQU USR=0xB
	.EQU UDR=0xC
	.EQU SPSR=0xE
	.EQU SPDR=0xF
	.EQU EERE=0x0
	.EQU EEWE=0x1
	.EQU EEMWE=0x2
	.EQU EECR=0x1C
	.EQU EEDR=0x1D
	.EQU EEARL=0x1E
	.EQU EEARH=0x1F
	.EQU WDTCR=0x21
	.EQU MCUCR=0x35
	.EQU GICR=0x3B
	.EQU SPL=0x3D
	.EQU SPH=0x3E
	.EQU SREG=0x3F

	.DEF R0X0=R0
	.DEF R0X1=R1
	.DEF R0X2=R2
	.DEF R0X3=R3
	.DEF R0X4=R4
	.DEF R0X5=R5
	.DEF R0X6=R6
	.DEF R0X7=R7
	.DEF R0X8=R8
	.DEF R0X9=R9
	.DEF R0XA=R10
	.DEF R0XB=R11
	.DEF R0XC=R12
	.DEF R0XD=R13
	.DEF R0XE=R14
	.DEF R0XF=R15
	.DEF R0X10=R16
	.DEF R0X11=R17
	.DEF R0X12=R18
	.DEF R0X13=R19
	.DEF R0X14=R20
	.DEF R0X15=R21
	.DEF R0X16=R22
	.DEF R0X17=R23
	.DEF R0X18=R24
	.DEF R0X19=R25
	.DEF R0X1A=R26
	.DEF R0X1B=R27
	.DEF R0X1C=R28
	.DEF R0X1D=R29
	.DEF R0X1E=R30
	.DEF R0X1F=R31

	.MACRO __CPD1N
	CPI  R30,LOW(@0)
	LDI  R26,HIGH(@0)
	CPC  R31,R26
	LDI  R26,BYTE3(@0)
	CPC  R22,R26
	LDI  R26,BYTE4(@0)
	CPC  R23,R26
	.ENDM

	.MACRO __CPD2N
	CPI  R26,LOW(@0)
	LDI  R30,HIGH(@0)
	CPC  R27,R30
	LDI  R30,BYTE3(@0)
	CPC  R24,R30
	LDI  R30,BYTE4(@0)
	CPC  R25,R30
	.ENDM

	.MACRO __CPWRR
	CP   R@0,R@2
	CPC  R@1,R@3
	.ENDM

	.MACRO __CPWRN
	CPI  R@0,LOW(@2)
	LDI  R30,HIGH(@2)
	CPC  R@1,R30
	.ENDM

	.MACRO __ADDB1MN
	SUBI R30,LOW(-@0-(@1))
	.ENDM

	.MACRO __ADDB2MN
	SUBI R26,LOW(-@0-(@1))
	.ENDM

	.MACRO __ADDW1MN
	SUBI R30,LOW(-@0-(@1))
	SBCI R31,HIGH(-@0-(@1))
	.ENDM

	.MACRO __ADDW2MN
	SUBI R26,LOW(-@0-(@1))
	SBCI R27,HIGH(-@0-(@1))
	.ENDM

	.MACRO __ADDW1FN
	SUBI R30,LOW(-2*@0-(@1))
	SBCI R31,HIGH(-2*@0-(@1))
	.ENDM

	.MACRO __ADDD1FN
	SUBI R30,LOW(-2*@0-(@1))
	SBCI R31,HIGH(-2*@0-(@1))
	SBCI R22,BYTE3(-2*@0-(@1))
	.ENDM

	.MACRO __ADDD1N
	SUBI R30,LOW(-@0)
	SBCI R31,HIGH(-@0)
	SBCI R22,BYTE3(-@0)
	SBCI R23,BYTE4(-@0)
	.ENDM

	.MACRO __ADDD2N
	SUBI R26,LOW(-@0)
	SBCI R27,HIGH(-@0)
	SBCI R24,BYTE3(-@0)
	SBCI R25,BYTE4(-@0)
	.ENDM

	.MACRO __SUBD1N
	SUBI R30,LOW(@0)
	SBCI R31,HIGH(@0)
	SBCI R22,BYTE3(@0)
	SBCI R23,BYTE4(@0)
	.ENDM

	.MACRO __SUBD2N
	SUBI R26,LOW(@0)
	SBCI R27,HIGH(@0)
	SBCI R24,BYTE3(@0)
	SBCI R25,BYTE4(@0)
	.ENDM

	.MACRO __ANDBMNN
	LDS  R30,@0+@1
	ANDI R30,LOW(@2)
	STS  @0+@1,R30
	.ENDM

	.MACRO __ANDWMNN
	LDS  R30,@0+@1
	ANDI R30,LOW(@2)
	STS  @0+@1,R30
	LDS  R30,@0+@1+1
	ANDI R30,HIGH(@2)
	STS  @0+@1+1,R30
	.ENDM

	.MACRO __ANDD1N
	ANDI R30,LOW(@0)
	ANDI R31,HIGH(@0)
	ANDI R22,BYTE3(@0)
	ANDI R23,BYTE4(@0)
	.ENDM

	.MACRO __ANDD2N
	ANDI R26,LOW(@0)
	ANDI R27,HIGH(@0)
	ANDI R24,BYTE3(@0)
	ANDI R25,BYTE4(@0)
	.ENDM

	.MACRO __ORBMNN
	LDS  R30,@0+@1
	ORI  R30,LOW(@2)
	STS  @0+@1,R30
	.ENDM

	.MACRO __ORWMNN
	LDS  R30,@0+@1
	ORI  R30,LOW(@2)
	STS  @0+@1,R30
	LDS  R30,@0+@1+1
	ORI  R30,HIGH(@2)
	STS  @0+@1+1,R30
	.ENDM

	.MACRO __ORD1N
	ORI  R30,LOW(@0)
	ORI  R31,HIGH(@0)
	ORI  R22,BYTE3(@0)
	ORI  R23,BYTE4(@0)
	.ENDM

	.MACRO __ORD2N
	ORI  R26,LOW(@0)
	ORI  R27,HIGH(@0)
	ORI  R24,BYTE3(@0)
	ORI  R25,BYTE4(@0)
	.ENDM

	.MACRO __DELAY_USB
	LDI  R24,LOW(@0)
__DELAY_USB_LOOP:
	DEC  R24
	BRNE __DELAY_USB_LOOP
	.ENDM

	.MACRO __DELAY_USW
	LDI  R24,LOW(@0)
	LDI  R25,HIGH(@0)
__DELAY_USW_LOOP:
	SBIW R24,1
	BRNE __DELAY_USW_LOOP
	.ENDM

	.MACRO __CLRD1S
	LDI  R30,0
	STD  Y+@0,R30
	STD  Y+@0+1,R30
	STD  Y+@0+2,R30
	STD  Y+@0+3,R30
	.ENDM

	.MACRO __GETD1S
	LDD  R30,Y+@0
	LDD  R31,Y+@0+1
	LDD  R22,Y+@0+2
	LDD  R23,Y+@0+3
	.ENDM

	.MACRO __PUTD1S
	STD  Y+@0,R30
	STD  Y+@0+1,R31
	STD  Y+@0+2,R22
	STD  Y+@0+3,R23
	.ENDM

	.MACRO __PUTD2S
	STD  Y+@0,R26
	STD  Y+@0+1,R27
	STD  Y+@0+2,R24
	STD  Y+@0+3,R25
	.ENDM

	.MACRO __POINTB1MN
	LDI  R30,LOW(@0+@1)
	.ENDM

	.MACRO __POINTW1MN
	LDI  R30,LOW(@0+@1)
	LDI  R31,HIGH(@0+@1)
	.ENDM

	.MACRO __POINTD1M
	LDI  R30,LOW(@0)
	LDI  R31,HIGH(@0)
	LDI  R22,BYTE3(@0)
	LDI  R23,BYTE4(@0)
	.ENDM

	.MACRO __POINTW1FN
	LDI  R30,LOW(2*@0+@1)
	LDI  R31,HIGH(2*@0+@1)
	.ENDM

	.MACRO __POINTD1FN
	LDI  R30,LOW(2*@0+@1)
	LDI  R31,HIGH(2*@0+@1)
	LDI  R22,BYTE3(2*@0+@1)
	LDI  R23,BYTE4(2*@0+@1)
	.ENDM

	.MACRO __POINTB2MN
	LDI  R26,LOW(@0+@1)
	.ENDM

	.MACRO __POINTW2MN
	LDI  R26,LOW(@0+@1)
	LDI  R27,HIGH(@0+@1)
	.ENDM

	.MACRO __POINTBRM
	LDI  R@0,LOW(@1)
	.ENDM

	.MACRO __POINTWRM
	LDI  R@0,LOW(@2)
	LDI  R@1,HIGH(@2)
	.ENDM

	.MACRO __POINTBRMN
	LDI  R@0,LOW(@1+@2)
	.ENDM

	.MACRO __POINTWRMN
	LDI  R@0,LOW(@2+@3)
	LDI  R@1,HIGH(@2+@3)
	.ENDM

	.MACRO __POINTWRFN
	LDI  R@0,LOW(@2*2+@3)
	LDI  R@1,HIGH(@2*2+@3)
	.ENDM

	.MACRO __GETD1N
	LDI  R30,LOW(@0)
	LDI  R31,HIGH(@0)
	LDI  R22,BYTE3(@0)
	LDI  R23,BYTE4(@0)
	.ENDM

	.MACRO __GETD2N
	LDI  R26,LOW(@0)
	LDI  R27,HIGH(@0)
	LDI  R24,BYTE3(@0)
	LDI  R25,BYTE4(@0)
	.ENDM

	.MACRO __GETD2S
	LDD  R26,Y+@0
	LDD  R27,Y+@0+1
	LDD  R24,Y+@0+2
	LDD  R25,Y+@0+3
	.ENDM

	.MACRO __GETB1MN
	LDS  R30,@0+@1
	.ENDM

	.MACRO __GETB1HMN
	LDS  R31,@0+@1
	.ENDM

	.MACRO __GETW1MN
	LDS  R30,@0+@1
	LDS  R31,@0+@1+1
	.ENDM

	.MACRO __GETD1MN
	LDS  R30,@0+@1
	LDS  R31,@0+@1+1
	LDS  R22,@0+@1+2
	LDS  R23,@0+@1+3
	.ENDM

	.MACRO __GETBRMN
	LDS  R@0,@1+@2
	.ENDM

	.MACRO __GETWRMN
	LDS  R@0,@2+@3
	LDS  R@1,@2+@3+1
	.ENDM

	.MACRO __GETWRZ
	LDD  R@0,Z+@2
	LDD  R@1,Z+@2+1
	.ENDM

	.MACRO __GETD2Z
	LDD  R26,Z+@0
	LDD  R27,Z+@0+1
	LDD  R24,Z+@0+2
	LDD  R25,Z+@0+3
	.ENDM

	.MACRO __GETB2MN
	LDS  R26,@0+@1
	.ENDM

	.MACRO __GETW2MN
	LDS  R26,@0+@1
	LDS  R27,@0+@1+1
	.ENDM

	.MACRO __GETD2MN
	LDS  R26,@0+@1
	LDS  R27,@0+@1+1
	LDS  R24,@0+@1+2
	LDS  R25,@0+@1+3
	.ENDM

	.MACRO __PUTB1MN
	STS  @0+@1,R30
	.ENDM

	.MACRO __PUTW1MN
	STS  @0+@1,R30
	STS  @0+@1+1,R31
	.ENDM

	.MACRO __PUTD1MN
	STS  @0+@1,R30
	STS  @0+@1+1,R31
	STS  @0+@1+2,R22
	STS  @0+@1+3,R23
	.ENDM

	.MACRO __PUTB1EN
	LDI  R26,LOW(@0+@1)
	LDI  R27,HIGH(@0+@1)
	RCALL __EEPROMWRB
	.ENDM

	.MACRO __PUTW1EN
	LDI  R26,LOW(@0+@1)
	LDI  R27,HIGH(@0+@1)
	RCALL __EEPROMWRW
	.ENDM

	.MACRO __PUTD1EN
	LDI  R26,LOW(@0+@1)
	LDI  R27,HIGH(@0+@1)
	RCALL __EEPROMWRD
	.ENDM

	.MACRO __PUTBR0MN
	STS  @0+@1,R0
	.ENDM

	.MACRO __PUTDZ2
	STD  Z+@0,R26
	STD  Z+@0+1,R27
	STD  Z+@0+2,R24
	STD  Z+@0+3,R25
	.ENDM

	.MACRO __PUTBMRN
	STS  @0+@1,R@2
	.ENDM

	.MACRO __PUTWMRN
	STS  @0+@1,R@2
	STS  @0+@1+1,R@3
	.ENDM

	.MACRO __PUTBZR
	STD  Z+@1,R@0
	.ENDM

	.MACRO __PUTWZR
	STD  Z+@2,R@0
	STD  Z+@2+1,R@1
	.ENDM

	.MACRO __GETW1R
	MOV  R30,R@0
	MOV  R31,R@1
	.ENDM

	.MACRO __GETW2R
	MOV  R26,R@0
	MOV  R27,R@1
	.ENDM

	.MACRO __GETWRN
	LDI  R@0,LOW(@2)
	LDI  R@1,HIGH(@2)
	.ENDM

	.MACRO __PUTW1R
	MOV  R@0,R30
	MOV  R@1,R31
	.ENDM

	.MACRO __PUTW2R
	MOV  R@0,R26
	MOV  R@1,R27
	.ENDM

	.MACRO __ADDWRN
	SUBI R@0,LOW(-@2)
	SBCI R@1,HIGH(-@2)
	.ENDM

	.MACRO __ADDWRR
	ADD  R@0,R@2
	ADC  R@1,R@3
	.ENDM

	.MACRO __SUBWRN
	SUBI R@0,LOW(@2)
	SBCI R@1,HIGH(@2)
	.ENDM

	.MACRO __SUBWRR
	SUB  R@0,R@2
	SBC  R@1,R@3
	.ENDM

	.MACRO __ANDWRN
	ANDI R@0,LOW(@2)
	ANDI R@1,HIGH(@2)
	.ENDM

	.MACRO __ANDWRR
	AND  R@0,R@2
	AND  R@1,R@3
	.ENDM

	.MACRO __ORWRN
	ORI  R@0,LOW(@2)
	ORI  R@1,HIGH(@2)
	.ENDM

	.MACRO __ORWRR
	OR   R@0,R@2
	OR   R@1,R@3
	.ENDM

	.MACRO __EORWRR
	EOR  R@0,R@2
	EOR  R@1,R@3
	.ENDM

	.MACRO __GETWRS
	LDD  R@0,Y+@2
	LDD  R@1,Y+@2+1
	.ENDM

	.MACRO __PUTWSR
	STD  Y+@2,R@0
	STD  Y+@2+1,R@1
	.ENDM

	.MACRO __MOVEWRR
	MOV  R@0,R@2
	MOV  R@1,R@3
	.ENDM

	.MACRO __INWR
	IN   R@0,@2
	IN   R@1,@2+1
	.ENDM

	.MACRO __OUTWR
	OUT  @2+1,R@1
	OUT  @2,R@0
	.ENDM

	.MACRO __CALL1MN
	LDS  R30,@0+@1
	LDS  R31,@0+@1+1
	ICALL
	.ENDM

	.MACRO __CALL1FN
	LDI  R30,LOW(2*@0+@1)
	LDI  R31,HIGH(2*@0+@1)
	RCALL __GETW1PF
	ICALL
	.ENDM

	.MACRO __CALL2EN
	LDI  R26,LOW(@0+@1)
	LDI  R27,HIGH(@0+@1)
	RCALL __EEPROMRDW
	ICALL
	.ENDM

	.MACRO __GETW1STACK
	IN   R26,SPL
	IN   R27,SPH
	ADIW R26,@0+1
	LD   R30,X+
	LD   R31,X
	.ENDM

	.MACRO __NBST
	BST  R@0,@1
	IN   R30,SREG
	LDI  R31,0x40
	EOR  R30,R31
	OUT  SREG,R30
	.ENDM


	.MACRO __PUTB1SN
	LDD  R26,Y+@0
	LDD  R27,Y+@0+1
	SUBI R26,LOW(-@1)
	SBCI R27,HIGH(-@1)
	ST   X,R30
	.ENDM

	.MACRO __PUTW1SN
	LDD  R26,Y+@0
	LDD  R27,Y+@0+1
	SUBI R26,LOW(-@1)
	SBCI R27,HIGH(-@1)
	ST   X+,R30
	ST   X,R31
	.ENDM

	.MACRO __PUTD1SN
	LDD  R26,Y+@0
	LDD  R27,Y+@0+1
	SUBI R26,LOW(-@1)
	SBCI R27,HIGH(-@1)
	RCALL __PUTDP1
	.ENDM

	.MACRO __PUTB1SNS
	LDD  R26,Y+@0
	LDD  R27,Y+@0+1
	ADIW R26,@1
	ST   X,R30
	.ENDM

	.MACRO __PUTW1SNS
	LDD  R26,Y+@0
	LDD  R27,Y+@0+1
	ADIW R26,@1
	ST   X+,R30
	ST   X,R31
	.ENDM

	.MACRO __PUTD1SNS
	LDD  R26,Y+@0
	LDD  R27,Y+@0+1
	ADIW R26,@1
	RCALL __PUTDP1
	.ENDM

	.MACRO __PUTB1PMN
	LDS  R26,@0
	LDS  R27,@0+1
	SUBI R26,LOW(-@1)
	SBCI R27,HIGH(-@1)
	ST   X,R30
	.ENDM

	.MACRO __PUTW1PMN
	LDS  R26,@0
	LDS  R27,@0+1
	SUBI R26,LOW(-@1)
	SBCI R27,HIGH(-@1)
	ST   X+,R30
	ST   X,R31
	.ENDM

	.MACRO __PUTD1PMN
	LDS  R26,@0
	LDS  R27,@0+1
	SUBI R26,LOW(-@1)
	SBCI R27,HIGH(-@1)
	RCALL __PUTDP1
	.ENDM

	.MACRO __PUTB1PMNS
	LDS  R26,@0
	LDS  R27,@0+1
	ADIW R26,@1
	ST   X,R30
	.ENDM

	.MACRO __PUTW1PMNS
	LDS  R26,@0
	LDS  R27,@0+1
	ADIW R26,@1
	ST   X+,R30
	ST   X,R31
	.ENDM

	.MACRO __PUTD1PMNS
	LDS  R26,@0
	LDS  R27,@0+1
	ADIW R26,@1
	RCALL __PUTDP1
	.ENDM

	.MACRO __PUTB1RN
	MOVW R26,R@0
	SUBI R26,LOW(-@1)
	SBCI R27,HIGH(-@1)
	ST   X,R30
	.ENDM

	.MACRO __PUTW1RN
	MOVW R26,R@0
	SUBI R26,LOW(-@1)
	SBCI R27,HIGH(-@1)
	ST   X+,R30
	ST   X,R31
	.ENDM

	.MACRO __PUTD1RN
	MOVW R26,R@0
	SUBI R26,LOW(-@1)
	SBCI R27,HIGH(-@1)
	RCALL __PUTDP1
	.ENDM

	.MACRO __PUTB1RNS
	MOVW R26,R@0
	ADIW R26,@1
	ST   X,R30
	.ENDM

	.MACRO __PUTW1RNS
	MOVW R26,R@0
	ADIW R26,@1
	ST   X+,R30
	ST   X,R31
	.ENDM

	.MACRO __PUTD1RNS
	MOVW R26,R@0
	ADIW R26,@1
	RCALL __PUTDP1
	.ENDM

	.MACRO __PUTB1RON
	MOV  R26,R@0
	MOV  R27,R@1
	SUBI R26,LOW(-@2)
	SBCI R27,HIGH(-@2)
	ST   X,R30
	.ENDM

	.MACRO __PUTW1RON
	MOV  R26,R@0
	MOV  R27,R@1
	SUBI R26,LOW(-@2)
	SBCI R27,HIGH(-@2)
	ST   X+,R30
	ST   X,R31
	.ENDM

	.MACRO __PUTD1RON
	MOV  R26,R@0
	MOV  R27,R@1
	SUBI R26,LOW(-@2)
	SBCI R27,HIGH(-@2)
	RCALL __PUTDP1
	.ENDM

	.MACRO __PUTB1RONS
	MOV  R26,R@0
	MOV  R27,R@1
	ADIW R26,@2
	ST   X,R30
	.ENDM

	.MACRO __PUTW1RONS
	MOV  R26,R@0
	MOV  R27,R@1
	ADIW R26,@2
	ST   X+,R30
	ST   X,R31
	.ENDM

	.MACRO __PUTD1RONS
	MOV  R26,R@0
	MOV  R27,R@1
	ADIW R26,@2
	RCALL __PUTDP1
	.ENDM


	.MACRO __GETB1SX
	MOVW R30,R28
	SUBI R30,LOW(-@0)
	SBCI R31,HIGH(-@0)
	LD   R30,Z
	.ENDM

	.MACRO __GETB1HSX
	MOVW R30,R28
	SUBI R30,LOW(-@0)
	SBCI R31,HIGH(-@0)
	LD   R31,Z
	.ENDM

	.MACRO __GETW1SX
	MOVW R30,R28
	SUBI R30,LOW(-@0)
	SBCI R31,HIGH(-@0)
	LD   R0,Z+
	LD   R31,Z
	MOV  R30,R0
	.ENDM

	.MACRO __GETD1SX
	MOVW R30,R28
	SUBI R30,LOW(-@0)
	SBCI R31,HIGH(-@0)
	LD   R0,Z+
	LD   R1,Z+
	LD   R22,Z+
	LD   R23,Z
	MOVW R30,R0
	.ENDM

	.MACRO __GETB2SX
	MOVW R26,R28
	SUBI R26,LOW(-@0)
	SBCI R27,HIGH(-@0)
	LD   R26,X
	.ENDM

	.MACRO __GETW2SX
	MOVW R26,R28
	SUBI R26,LOW(-@0)
	SBCI R27,HIGH(-@0)
	LD   R0,X+
	LD   R27,X
	MOV  R26,R0
	.ENDM

	.MACRO __GETD2SX
	MOVW R26,R28
	SUBI R26,LOW(-@0)
	SBCI R27,HIGH(-@0)
	LD   R0,X+
	LD   R1,X+
	LD   R24,X+
	LD   R25,X
	MOVW R26,R0
	.ENDM

	.MACRO __GETBRSX
	MOVW R30,R28
	SUBI R30,LOW(-@1)
	SBCI R31,HIGH(-@1)
	LD   R@0,Z
	.ENDM

	.MACRO __GETWRSX
	MOVW R30,R28
	SUBI R30,LOW(-@2)
	SBCI R31,HIGH(-@2)
	LD   R@0,Z+
	LD   R@1,Z
	.ENDM

	.MACRO __LSLW8SX
	MOVW R30,R28
	SUBI R30,LOW(-@0)
	SBCI R31,HIGH(-@0)
	LD   R31,Z
	CLR  R30
	.ENDM

	.MACRO __PUTB1SX
	MOVW R26,R28
	SUBI R26,LOW(-@0)
	SBCI R27,HIGH(-@0)
	ST   X,R30
	.ENDM

	.MACRO __PUTW1SX
	MOVW R26,R28
	SUBI R26,LOW(-@0)
	SBCI R27,HIGH(-@0)
	ST   X+,R30
	ST   X,R31
	.ENDM

	.MACRO __PUTD1SX
	MOVW R26,R28
	SUBI R26,LOW(-@0)
	SBCI R27,HIGH(-@0)
	ST   X+,R30
	ST   X+,R31
	ST   X+,R22
	ST   X,R23
	.ENDM

	.MACRO __CLRW1SX
	MOVW R30,R28
	SUBI R30,LOW(-@0)
	SBCI R31,HIGH(-@0)
	CLR  R0
	ST   Z+,R0
	ST   Z,R0
	.ENDM

	.MACRO __CLRD1SX
	MOVW R30,R28
	SUBI R30,LOW(-@0)
	SBCI R31,HIGH(-@0)
	CLR  R0
	ST   Z+,R0
	ST   Z+,R0
	ST   Z+,R0
	ST   Z,R0
	.ENDM

	.MACRO __PUTB2SX
	MOVW R30,R28
	SUBI R30,LOW(-@0)
	SBCI R31,HIGH(-@0)
	ST   Z,R26
	.ENDM

	.MACRO __PUTW2SX
	MOVW R30,R28
	SUBI R30,LOW(-@0)
	SBCI R31,HIGH(-@0)
	ST   Z+,R26
	ST   Z,R27
	.ENDM

	.MACRO __PUTD2SX
	MOVW R30,R28
	SUBI R30,LOW(-@0)
	SBCI R31,HIGH(-@0)
	ST   Z+,R26
	ST   Z+,R27
	ST   Z+,R24
	ST   Z,R25
	.ENDM

	.MACRO __PUTBSRX
	MOVW R30,R28
	SUBI R30,LOW(-@0)
	SBCI R31,HIGH(-@0)
	ST   Z,R@1
	.ENDM

	.MACRO __PUTWSRX
	MOVW R30,R28
	SUBI R30,LOW(-@2)
	SBCI R31,HIGH(-@2)
	ST   Z+,R@0
	ST   Z,R@1
	.ENDM

	.MACRO __PUTB1SNX
	MOVW R26,R28
	SUBI R26,LOW(-@0)
	SBCI R27,HIGH(-@0)
	LD   R0,X+
	LD   R27,X
	MOV  R26,R0
	SUBI R26,LOW(-@1)
	SBCI R27,HIGH(-@1)
	ST   X,R30
	.ENDM

	.MACRO __PUTW1SNX
	MOVW R26,R28
	SUBI R26,LOW(-@0)
	SBCI R27,HIGH(-@0)
	LD   R0,X+
	LD   R27,X
	MOV  R26,R0
	SUBI R26,LOW(-@1)
	SBCI R27,HIGH(-@1)
	ST   X+,R30
	ST   X,R31
	.ENDM

	.MACRO __PUTD1SNX
	MOVW R26,R28
	SUBI R26,LOW(-@0)
	SBCI R27,HIGH(-@0)
	LD   R0,X+
	LD   R27,X
	MOV  R26,R0
	SUBI R26,LOW(-@1)
	SBCI R27,HIGH(-@1)
	ST   X+,R30
	ST   X+,R31
	ST   X+,R22
	ST   X,R23
	.ENDM

	.MACRO __MULBRR
	MULS R@0,R@1
	MOVW R30,R0
	.ENDM

	.MACRO __MULBRRU
	MUL  R@0,R@1
	MOVW R30,R0
	.ENDM

	.MACRO __MULBRR0
	MULS R@0,R@1
	.ENDM

	.MACRO __MULBRRU0
	MUL  R@0,R@1
	.ENDM

	.MACRO __MULBNWRU
	LDI  R26,@2
	MUL  R26,R@0
	MOVW R30,R0
	MUL  R26,R@1
	ADD  R31,R0
	.ENDM

;NAME DEFINITIONS FOR GLOBAL VARIABLES ALLOCATED TO REGISTERS
	.DEF _adc0=R4
	.DEF _Timer1=R6
	.DEF _Timer2=R8
	.DEF _Timer_2=R11
	.DEF _Timer_3=R10
	.DEF _sig1=R13
	.DEF _U2=R12

	.CSEG
	.ORG 0x00

;INTERRUPT VECTORS
	RJMP __RESET
	RJMP 0x00
	RJMP 0x00
	RJMP 0x00
	RJMP 0x00
	RJMP 0x00
	RJMP 0x00
	RJMP 0x00
	RJMP 0x00
	RJMP _timer0_ovf_isr
	RJMP 0x00
	RJMP _usart_rx_isr
	RJMP 0x00
	RJMP 0x00
	RJMP 0x00
	RJMP 0x00
	RJMP 0x00
	RJMP 0x00
	RJMP 0x00

_tbl10_G100:
	.DB  0x10,0x27,0xE8,0x3,0x64,0x0,0xA,0x0
	.DB  0x1,0x0
_tbl16_G100:
	.DB  0x0,0x10,0x0,0x1,0x10,0x0,0x1,0x0

_0x0:
	.DB  0x25,0x64,0x23,0x0
__RESET:
	CLI
	CLR  R30
	OUT  EECR,R30

;INTERRUPT VECTORS ARE PLACED
;AT THE START OF FLASH
	LDI  R31,1
	OUT  GICR,R31
	OUT  GICR,R30
	OUT  MCUCR,R30

;DISABLE WATCHDOG
	LDI  R31,0x18
	OUT  WDTCR,R31
	OUT  WDTCR,R30

;CLEAR R2-R14
	LDI  R24,(14-2)+1
	LDI  R26,2
	CLR  R27
__CLEAR_REG:
	ST   X+,R30
	DEC  R24
	BRNE __CLEAR_REG

;CLEAR SRAM
	LDI  R24,LOW(0x400)
	LDI  R25,HIGH(0x400)
	LDI  R26,0x60
__CLEAR_SRAM:
	ST   X+,R30
	SBIW R24,1
	BRNE __CLEAR_SRAM

;STACK POINTER INITIALIZATION
	LDI  R30,LOW(0x45F)
	OUT  SPL,R30
	LDI  R30,HIGH(0x45F)
	OUT  SPH,R30

;DATA STACK POINTER INITIALIZATION
	LDI  R28,LOW(0x160)
	LDI  R29,HIGH(0x160)

	RJMP _main

	.ESEG
	.ORG 0

	.DSEG
	.ORG 0x160

	.CSEG
;#include <mega8.h>
	#ifndef __SLEEP_DEFINED__
	#define __SLEEP_DEFINED__
	.EQU __se_bit=0x80
	.EQU __sm_mask=0x70
	.EQU __sm_powerdown=0x20
	.EQU __sm_powersave=0x30
	.EQU __sm_standby=0x60
	.EQU __sm_ext_standby=0x70
	.EQU __sm_adc_noise_red=0x10
	.SET power_ctrl_reg=mcucr
	#endif
;#include <delay.h>
;#include <stdio.h>
;#include <string.h>
;
;
;
;#define ADC_VREF_TYPE 0x00
;//#define ADC_VREF_TYPE 0x20
;
;unsigned int adc0,Timer1,Timer2;
;unsigned char Timer_2,Timer_3,sig1,U2;
;char data;
;bit a, U1;
;
;#include <INT.c>
;interrupt [TIM0_OVF] void timer0_ovf_isr(void)
; 0000 0010 {

	.CSEG
_timer0_ovf_isr:
	ST   -Y,R26
	ST   -Y,R30
	ST   -Y,R31
	IN   R30,SREG
	ST   -Y,R30
;Timer1++;
	MOVW R30,R6
	ADIW R30,1
	MOVW R6,R30
;Timer2++;
	MOVW R30,R8
	ADIW R30,1
	MOVW R8,R30
;if (Timer2==1500){Timer2=0;a=1;}
	LDI  R30,LOW(1500)
	LDI  R31,HIGH(1500)
	CP   R30,R8
	CPC  R31,R9
	BRNE _0x3
	CLR  R8
	CLR  R9
	SET
	BLD  R2,0
;if (Timer1==10000){
_0x3:
	LDI  R30,LOW(10000)
	LDI  R31,HIGH(10000)
	CP   R30,R6
	CPC  R31,R7
	BRNE _0x4
;U2=0;
	CLR  R12
;}
;if (Timer1==20000){
_0x4:
	LDI  R30,LOW(20000)
	LDI  R31,HIGH(20000)
	CP   R30,R6
	CPC  R31,R7
	BRNE _0x5
;U2=1;Timer1=0;
	LDI  R30,LOW(1)
	MOV  R12,R30
	CLR  R6
	CLR  R7
;}
;Timer_2++;
_0x5:
	INC  R11
;if (Timer_2==20){Timer_2=1;Timer_3++;} //скорость обновлени€ PWM модулировани€, значение мен€етс€ с частотой
	LDI  R30,LOW(20)
	CP   R30,R11
	BRNE _0x6
	LDI  R30,LOW(1)
	MOV  R11,R30
	INC  R10
;
;if (Timer_2<sig1){U1=1;}else{U1=0;} // sig1 + задержка драйвер дл€ лампы 0 - значение 1й переменной
_0x6:
	CP   R11,R13
	BRSH _0x7
	SET
	RJMP _0x21
_0x7:
	CLT
_0x21:
	BLD  R2,1
;if (U1==1){PORTD|=0b00000100;} //x3,y4
	LDI  R26,0
	SBRC R2,1
	LDI  R26,1
	CPI  R26,LOW(0x1)
	BRNE _0x9
	SBI  0x12,2
;if (U1==0){PORTD&=~0b00000100;}
_0x9:
	SBRS R2,1
	CBI  0x12,2
;
;if (Timer_3>=20){ //скорость затухани€
	LDI  R30,LOW(20)
	CP   R10,R30
	BRLO _0xB
;
;
;
;if (U2==1) {if(sig1<20){sig1=sig1+1;}}
	LDI  R30,LOW(1)
	CP   R30,R12
	BRNE _0xC
	LDI  R30,LOW(20)
	CP   R13,R30
	BRSH _0xD
	INC  R13
_0xD:
;if (U2==0) {if(sig1>1){sig1=sig1-1;}else{sig1=0;}}
_0xC:
	TST  R12
	BRNE _0xE
	LDI  R30,LOW(1)
	CP   R30,R13
	BRSH _0xF
	DEC  R13
	RJMP _0x10
_0xF:
	CLR  R13
_0x10:
;
;
;
;Timer_3=0;}
_0xE:
	CLR  R10
;
;
;
;
;}
_0xB:
	LD   R30,Y+
	OUT  SREG,R30
	LD   R31,Y+
	LD   R30,Y+
	LD   R26,Y+
	RETI
;
;#include <USART_Rx.c>
;#define RXB8 1
;#define TXB8 0
;#define UPE 2
;#define OVR 3
;#define FE 4
;#define UDRE 5
;#define RXC 7
;
;#define FRAMING_ERROR (1<<FE)
;#define PARITY_ERROR (1<<UPE)
;#define DATA_OVERRUN (1<<OVR)
;#define DATA_REGISTER_EMPTY (1<<UDRE)
;#define RX_COMPLETE (1<<RXC)
;
;// USART Receiver buffer
;#define RX_BUFFER_SIZE 8
;char rx_buffer[RX_BUFFER_SIZE];
;
;#if RX_BUFFER_SIZE<256
;unsigned char rx_wr_index,rx_rd_index,rx_counter;
;#else
;unsigned int rx_wr_index,rx_rd_index,rx_counter;
;#endif
;
;// This flag is set on USART Receiver buffer overflow
;bit rx_buffer_overflow;
;
;// USART Receiver interrupt service routine
;interrupt [USART_RXC] void usart_rx_isr(void)
; 0000 0011 {
_usart_rx_isr:
	ST   -Y,R26
	ST   -Y,R30
	ST   -Y,R31
	IN   R30,SREG
	ST   -Y,R30
;char status;
;status=UCSRA;
	ST   -Y,R17
;	status -> R17
	IN   R17,11
;data=UDR;
	IN   R30,0xC
	STS  _data,R30
;if ((status & (FRAMING_ERROR | PARITY_ERROR | DATA_OVERRUN))==0)
	MOV  R30,R17
	ANDI R30,LOW(0x1C)
	BRNE _0x11
;   {
;   rx_buffer[rx_wr_index]=data;
	LDS  R30,_rx_wr_index
	LDI  R31,0
	SUBI R30,LOW(-_rx_buffer)
	SBCI R31,HIGH(-_rx_buffer)
	LDS  R26,_data
	STD  Z+0,R26
;   if (++rx_wr_index == RX_BUFFER_SIZE) rx_wr_index=0;
	LDS  R26,_rx_wr_index
	SUBI R26,-LOW(1)
	STS  _rx_wr_index,R26
	CPI  R26,LOW(0x8)
	BRNE _0x12
	LDI  R30,LOW(0)
	STS  _rx_wr_index,R30
;   if (++rx_counter == RX_BUFFER_SIZE)
_0x12:
	LDS  R26,_rx_counter
	SUBI R26,-LOW(1)
	STS  _rx_counter,R26
	CPI  R26,LOW(0x8)
	BRNE _0x13
;      {
;      rx_counter=0;
	LDI  R30,LOW(0)
	STS  _rx_counter,R30
;      rx_buffer_overflow=1;
	SET
	BLD  R2,2
;      };
_0x13:
;   };
_0x11:
;}
	LD   R17,Y+
	LD   R30,Y+
	OUT  SREG,R30
	LD   R31,Y+
	LD   R30,Y+
	LD   R26,Y+
	RETI
;
;#ifndef _DEBUG_TERMINAL_IO_
;// Get a character from the USART Receiver buffer
;#define _ALTERNATE_GETCHAR_
;#pragma used+
;char getchar(void)
;{
;char data;
;while (rx_counter==0);
;	data -> R17
;data=rx_buffer[rx_rd_index];
;if (++rx_rd_index == RX_BUFFER_SIZE) rx_rd_index=0;
;#asm("cli")
;--rx_counter;
;#asm("sei")
;return data;
;}
;#pragma used-
;#endif
;
;// Standard Input/Output functions
;#include <stdio.h>
;
;// Declare your global variables here
;
;
;unsigned int read_adc(unsigned char adc_input)
; 0000 0015 {
_read_adc:
; 0000 0016 ADMUX=adc_input | (ADC_VREF_TYPE & 0xff);
;	adc_input -> Y+0
	LD   R30,Y
	OUT  0x7,R30
; 0000 0017 // Delay needed for the stabilization of the ADC input voltage
; 0000 0018 delay_us(20);
	__DELAY_USB 53
; 0000 0019 // Start the AD conversion
; 0000 001A ADCSRA|=0x40;
	SBI  0x6,6
; 0000 001B // Wait for the AD conversion to complete
; 0000 001C while ((ADCSRA & 0x10)==0);
_0x18:
	SBIS 0x6,4
	RJMP _0x18
; 0000 001D ADCSRA|=0x10;
	SBI  0x6,4
; 0000 001E return ADCW;
	IN   R30,0x4
	IN   R31,0x4+1
	RJMP _0x2060001
; 0000 001F }
;/*
;
;unsigned char read_adc(unsigned char adc_input)
;{
;ADMUX=adc_input | (ADC_VREF_TYPE & 0xff);
;// Delay needed for the stabilization of the ADC input voltage
;delay_us(50);
;// Start the AD conversion
;ADCSRA|=0x40;
;// Wait for the AD conversion to complete
;while ((ADCSRA & 0x10)==0);
;ADCSRA|=0x10;
;return ADCH;
;}
;*/
;void main(void)
; 0000 0030 {
_main:
; 0000 0031 
; 0000 0032 //PORTB=0xFF;         //вкл. подт€гивающие резисторы
; 0000 0033 //DDRB=0xFF;           // весь порт как вход
; 0000 0034 //PORTD=0xFF;
; 0000 0035 
; 0000 0036 DDRD=0xFF;
	LDI  R30,LOW(255)
	OUT  0x11,R30
; 0000 0037 UCSRA=0x00;
	LDI  R30,LOW(0)
	OUT  0xB,R30
; 0000 0038 UCSRB=0x18;
	LDI  R30,LOW(24)
	OUT  0xA,R30
; 0000 0039 UCSRC=0x86;
	LDI  R30,LOW(134)
	OUT  0x20,R30
; 0000 003A UBRRH=0x00;
	LDI  R30,LOW(0)
	OUT  0x20,R30
; 0000 003B UBRRL=0x33;
	LDI  R30,LOW(51)
	OUT  0x9,R30
; 0000 003C 
; 0000 003D //////////////////////////////
; 0000 003E /*
; 0000 003F // USART initialization
; 0000 0040 // Communication Parameters: 8 Data, 1 Stop, No Parity
; 0000 0041 // USART Receiver: On
; 0000 0042 // USART Transmitter: On
; 0000 0043 // USART Mode: Asynchronous
; 0000 0044 // USART Baud Rate: 110
; 0000 0045 UCSRA=0x00;
; 0000 0046 UCSRB=0xD8;
; 0000 0047 UCSRC=0x86;
; 0000 0048 UBRRH=0x02;
; 0000 0049 UBRRL=0x37;
; 0000 004A */
; 0000 004B ///////////////////////////////////////
; 0000 004C 
; 0000 004D TCCR0=0x01;
	LDI  R30,LOW(1)
	OUT  0x33,R30
; 0000 004E TIMSK=0x01;
	OUT  0x39,R30
; 0000 004F ACSR=0x80;
	LDI  R30,LOW(128)
	OUT  0x8,R30
; 0000 0050 ADMUX=ADC_VREF_TYPE & 0xff;
	LDI  R30,LOW(0)
	OUT  0x7,R30
; 0000 0051 
; 0000 0052 ADCSRA=0x87;
	LDI  R30,LOW(135)
	OUT  0x6,R30
; 0000 0053 #asm("sei")
	sei
; 0000 0054 
; 0000 0055 
; 0000 0056 while (1)
_0x1B:
; 0000 0057 {
; 0000 0058 if (a==1){
	LDI  R26,0
	SBRC R2,0
	LDI  R26,1
	CPI  R26,LOW(0x1)
	BRNE _0x1E
; 0000 0059 adc0=read_adc(2);
	LDI  R30,LOW(2)
	ST   -Y,R30
	RCALL _read_adc
	MOVW R4,R30
; 0000 005A printf("%d#",adc0);
	__POINTW1FN _0x0,0
	ST   -Y,R31
	ST   -Y,R30
	MOVW R30,R4
	CLR  R22
	CLR  R23
	RCALL __PUTPARD1
	LDI  R24,4
	RCALL _printf
	ADIW R28,6
; 0000 005B //prin=getchar();
; 0000 005C if (data != 0){
	LDS  R30,_data
	CPI  R30,0
	BREQ _0x1F
; 0000 005D printf("%d#",data);
	__POINTW1FN _0x0,0
	ST   -Y,R31
	ST   -Y,R30
	LDS  R30,_data
	CLR  R31
	CLR  R22
	CLR  R23
	RCALL __PUTPARD1
	LDI  R24,4
	RCALL _printf
	ADIW R28,6
; 0000 005E }
; 0000 005F a=0;
_0x1F:
	CLT
	BLD  R2,0
; 0000 0060 //delay_ms(500);
; 0000 0061 //PORTD^=0b00000100;
; 0000 0062 }
; 0000 0063 }
_0x1E:
	RJMP _0x1B
; 0000 0064 }
_0x20:
	RJMP _0x20
	#ifndef __SLEEP_DEFINED__
	#define __SLEEP_DEFINED__
	.EQU __se_bit=0x80
	.EQU __sm_mask=0x70
	.EQU __sm_powerdown=0x20
	.EQU __sm_powersave=0x30
	.EQU __sm_standby=0x60
	.EQU __sm_ext_standby=0x70
	.EQU __sm_adc_noise_red=0x10
	.SET power_ctrl_reg=mcucr
	#endif

	.CSEG
_putchar:
     sbis usr,udre
     rjmp _putchar
     ld   r30,y
     out  udr,r30
_0x2060001:
	ADIW R28,1
	RET
__put_G100:
	RCALL __SAVELOCR2
	LDD  R26,Y+4
	LDD  R27,Y+4+1
	RCALL __GETW1P
	SBIW R30,0
	BREQ _0x2000010
	LDD  R26,Y+2
	LDD  R27,Y+2+1
	RCALL __GETW1P
	MOVW R16,R30
	SBIW R30,0
	BREQ _0x2000012
	__CPWRN 16,17,2
	BRLO _0x2000013
	MOVW R30,R16
	SBIW R30,1
	MOVW R16,R30
	ST   X+,R30
	ST   X,R31
_0x2000012:
	LDD  R26,Y+4
	LDD  R27,Y+4+1
	LD   R30,X+
	LD   R31,X+
	ADIW R30,1
	ST   -X,R31
	ST   -X,R30
	SBIW R30,1
	LDD  R26,Y+6
	STD  Z+0,R26
_0x2000013:
	RJMP _0x2000014
_0x2000010:
	LDD  R30,Y+6
	ST   -Y,R30
	RCALL _putchar
_0x2000014:
	RCALL __LOADLOCR2
	ADIW R28,7
	RET
__print_G100:
	SBIW R28,6
	RCALL __SAVELOCR6
	LDI  R17,0
_0x2000015:
	LDD  R30,Y+18
	LDD  R31,Y+18+1
	ADIW R30,1
	STD  Y+18,R30
	STD  Y+18+1,R31
	SBIW R30,1
	LPM  R30,Z
	MOV  R18,R30
	CPI  R30,0
	BRNE PC+2
	RJMP _0x2000017
	MOV  R30,R17
	CPI  R30,0
	BRNE _0x200001B
	CPI  R18,37
	BRNE _0x200001C
	LDI  R17,LOW(1)
	RJMP _0x200001D
_0x200001C:
	ST   -Y,R18
	LDD  R30,Y+15
	LDD  R31,Y+15+1
	ST   -Y,R31
	ST   -Y,R30
	MOVW R30,R28
	ADIW R30,15
	ST   -Y,R31
	ST   -Y,R30
	RCALL __put_G100
_0x200001D:
	RJMP _0x200001A
_0x200001B:
	CPI  R30,LOW(0x1)
	BRNE _0x200001E
	CPI  R18,37
	BRNE _0x200001F
	ST   -Y,R18
	LDD  R30,Y+15
	LDD  R31,Y+15+1
	ST   -Y,R31
	ST   -Y,R30
	MOVW R30,R28
	ADIW R30,15
	ST   -Y,R31
	ST   -Y,R30
	RCALL __put_G100
	RJMP _0x20000BC
_0x200001F:
	LDI  R17,LOW(2)
	LDI  R20,LOW(0)
	LDI  R16,LOW(0)
	CPI  R18,45
	BRNE _0x2000020
	LDI  R16,LOW(1)
	RJMP _0x200001A
_0x2000020:
	CPI  R18,43
	BRNE _0x2000021
	LDI  R20,LOW(43)
	RJMP _0x200001A
_0x2000021:
	CPI  R18,32
	BRNE _0x2000022
	LDI  R20,LOW(32)
	RJMP _0x200001A
_0x2000022:
	RJMP _0x2000023
_0x200001E:
	CPI  R30,LOW(0x2)
	BRNE _0x2000024
_0x2000023:
	LDI  R21,LOW(0)
	LDI  R17,LOW(3)
	CPI  R18,48
	BRNE _0x2000025
	ORI  R16,LOW(128)
	RJMP _0x200001A
_0x2000025:
	RJMP _0x2000026
_0x2000024:
	CPI  R30,LOW(0x3)
	BREQ PC+2
	RJMP _0x200001A
_0x2000026:
	CPI  R18,48
	BRLO _0x2000029
	CPI  R18,58
	BRLO _0x200002A
_0x2000029:
	RJMP _0x2000028
_0x200002A:
	MOV  R26,R21
	LDI  R30,LOW(10)
	MUL  R30,R26
	MOVW R30,R0
	MOV  R21,R30
	MOV  R30,R18
	SUBI R30,LOW(48)
	ADD  R21,R30
	RJMP _0x200001A
_0x2000028:
	MOV  R30,R18
	CPI  R30,LOW(0x63)
	BRNE _0x200002E
	LDD  R30,Y+16
	LDD  R31,Y+16+1
	SBIW R30,4
	STD  Y+16,R30
	STD  Y+16+1,R31
	LDD  R26,Z+4
	ST   -Y,R26
	LDD  R30,Y+15
	LDD  R31,Y+15+1
	ST   -Y,R31
	ST   -Y,R30
	MOVW R30,R28
	ADIW R30,15
	ST   -Y,R31
	ST   -Y,R30
	RCALL __put_G100
	RJMP _0x200002F
_0x200002E:
	CPI  R30,LOW(0x73)
	BRNE _0x2000031
	LDD  R30,Y+16
	LDD  R31,Y+16+1
	SBIW R30,4
	STD  Y+16,R30
	STD  Y+16+1,R31
	LDD  R26,Y+16
	LDD  R27,Y+16+1
	ADIW R26,4
	RCALL __GETW1P
	STD  Y+6,R30
	STD  Y+6+1,R31
	ST   -Y,R31
	ST   -Y,R30
	RCALL _strlen
	MOV  R17,R30
	RJMP _0x2000032
_0x2000031:
	CPI  R30,LOW(0x70)
	BRNE _0x2000034
	LDD  R30,Y+16
	LDD  R31,Y+16+1
	SBIW R30,4
	STD  Y+16,R30
	STD  Y+16+1,R31
	LDD  R26,Y+16
	LDD  R27,Y+16+1
	ADIW R26,4
	RCALL __GETW1P
	STD  Y+6,R30
	STD  Y+6+1,R31
	ST   -Y,R31
	ST   -Y,R30
	RCALL _strlenf
	MOV  R17,R30
	ORI  R16,LOW(8)
_0x2000032:
	ORI  R16,LOW(2)
	ANDI R16,LOW(127)
	LDI  R19,LOW(0)
	RJMP _0x2000035
_0x2000034:
	CPI  R30,LOW(0x64)
	BREQ _0x2000038
	CPI  R30,LOW(0x69)
	BRNE _0x2000039
_0x2000038:
	ORI  R16,LOW(4)
	RJMP _0x200003A
_0x2000039:
	CPI  R30,LOW(0x75)
	BRNE _0x200003B
_0x200003A:
	LDI  R30,LOW(_tbl10_G100*2)
	LDI  R31,HIGH(_tbl10_G100*2)
	STD  Y+6,R30
	STD  Y+6+1,R31
	LDI  R17,LOW(5)
	RJMP _0x200003C
_0x200003B:
	CPI  R30,LOW(0x58)
	BRNE _0x200003E
	ORI  R16,LOW(8)
	RJMP _0x200003F
_0x200003E:
	CPI  R30,LOW(0x78)
	BREQ PC+2
	RJMP _0x2000070
_0x200003F:
	LDI  R30,LOW(_tbl16_G100*2)
	LDI  R31,HIGH(_tbl16_G100*2)
	STD  Y+6,R30
	STD  Y+6+1,R31
	LDI  R17,LOW(4)
_0x200003C:
	SBRS R16,2
	RJMP _0x2000041
	LDD  R30,Y+16
	LDD  R31,Y+16+1
	SBIW R30,4
	STD  Y+16,R30
	STD  Y+16+1,R31
	LDD  R26,Y+16
	LDD  R27,Y+16+1
	ADIW R26,4
	RCALL __GETW1P
	STD  Y+10,R30
	STD  Y+10+1,R31
	LDD  R26,Y+11
	TST  R26
	BRPL _0x2000042
	RCALL __ANEGW1
	STD  Y+10,R30
	STD  Y+10+1,R31
	LDI  R20,LOW(45)
_0x2000042:
	CPI  R20,0
	BREQ _0x2000043
	SUBI R17,-LOW(1)
	RJMP _0x2000044
_0x2000043:
	ANDI R16,LOW(251)
_0x2000044:
	RJMP _0x2000045
_0x2000041:
	LDD  R30,Y+16
	LDD  R31,Y+16+1
	SBIW R30,4
	STD  Y+16,R30
	STD  Y+16+1,R31
	LDD  R26,Y+16
	LDD  R27,Y+16+1
	ADIW R26,4
	RCALL __GETW1P
	STD  Y+10,R30
	STD  Y+10+1,R31
_0x2000045:
_0x2000035:
	SBRC R16,0
	RJMP _0x2000046
_0x2000047:
	CP   R17,R21
	BRSH _0x2000049
	SBRS R16,7
	RJMP _0x200004A
	SBRS R16,2
	RJMP _0x200004B
	ANDI R16,LOW(251)
	MOV  R18,R20
	SUBI R17,LOW(1)
	RJMP _0x200004C
_0x200004B:
	LDI  R18,LOW(48)
_0x200004C:
	RJMP _0x200004D
_0x200004A:
	LDI  R18,LOW(32)
_0x200004D:
	ST   -Y,R18
	LDD  R30,Y+15
	LDD  R31,Y+15+1
	ST   -Y,R31
	ST   -Y,R30
	MOVW R30,R28
	ADIW R30,15
	ST   -Y,R31
	ST   -Y,R30
	RCALL __put_G100
	SUBI R21,LOW(1)
	RJMP _0x2000047
_0x2000049:
_0x2000046:
	MOV  R19,R17
	SBRS R16,1
	RJMP _0x200004E
_0x200004F:
	CPI  R19,0
	BREQ _0x2000051
	SBRS R16,3
	RJMP _0x2000052
	LDD  R30,Y+6
	LDD  R31,Y+6+1
	ADIW R30,1
	STD  Y+6,R30
	STD  Y+6+1,R31
	SBIW R30,1
	LPM  R30,Z
	RJMP _0x20000BD
_0x2000052:
	LDD  R26,Y+6
	LDD  R27,Y+6+1
	LD   R30,X+
	STD  Y+6,R26
	STD  Y+6+1,R27
_0x20000BD:
	ST   -Y,R30
	LDD  R30,Y+15
	LDD  R31,Y+15+1
	ST   -Y,R31
	ST   -Y,R30
	MOVW R30,R28
	ADIW R30,15
	ST   -Y,R31
	ST   -Y,R30
	RCALL __put_G100
	CPI  R21,0
	BREQ _0x2000054
	SUBI R21,LOW(1)
_0x2000054:
	SUBI R19,LOW(1)
	RJMP _0x200004F
_0x2000051:
	RJMP _0x2000055
_0x200004E:
_0x2000057:
	LDI  R18,LOW(48)
	LDD  R30,Y+6
	LDD  R31,Y+6+1
	RCALL __GETW1PF
	STD  Y+8,R30
	STD  Y+8+1,R31
	LDD  R30,Y+6
	LDD  R31,Y+6+1
	ADIW R30,2
	STD  Y+6,R30
	STD  Y+6+1,R31
_0x2000059:
	LDD  R30,Y+8
	LDD  R31,Y+8+1
	LDD  R26,Y+10
	LDD  R27,Y+10+1
	CP   R26,R30
	CPC  R27,R31
	BRLO _0x200005B
	SUBI R18,-LOW(1)
	LDD  R26,Y+8
	LDD  R27,Y+8+1
	LDD  R30,Y+10
	LDD  R31,Y+10+1
	SUB  R30,R26
	SBC  R31,R27
	STD  Y+10,R30
	STD  Y+10+1,R31
	RJMP _0x2000059
_0x200005B:
	CPI  R18,58
	BRLO _0x200005C
	SBRS R16,3
	RJMP _0x200005D
	SUBI R18,-LOW(7)
	RJMP _0x200005E
_0x200005D:
	SUBI R18,-LOW(39)
_0x200005E:
_0x200005C:
	SBRC R16,4
	RJMP _0x2000060
	CPI  R18,49
	BRSH _0x2000062
	LDD  R26,Y+8
	LDD  R27,Y+8+1
	SBIW R26,1
	BRNE _0x2000061
_0x2000062:
	RJMP _0x20000BE
_0x2000061:
	CP   R21,R19
	BRLO _0x2000066
	SBRS R16,0
	RJMP _0x2000067
_0x2000066:
	RJMP _0x2000065
_0x2000067:
	LDI  R18,LOW(32)
	SBRS R16,7
	RJMP _0x2000068
	LDI  R18,LOW(48)
_0x20000BE:
	ORI  R16,LOW(16)
	SBRS R16,2
	RJMP _0x2000069
	ANDI R16,LOW(251)
	ST   -Y,R20
	LDD  R30,Y+15
	LDD  R31,Y+15+1
	ST   -Y,R31
	ST   -Y,R30
	MOVW R30,R28
	ADIW R30,15
	ST   -Y,R31
	ST   -Y,R30
	RCALL __put_G100
	CPI  R21,0
	BREQ _0x200006A
	SUBI R21,LOW(1)
_0x200006A:
_0x2000069:
_0x2000068:
_0x2000060:
	ST   -Y,R18
	LDD  R30,Y+15
	LDD  R31,Y+15+1
	ST   -Y,R31
	ST   -Y,R30
	MOVW R30,R28
	ADIW R30,15
	ST   -Y,R31
	ST   -Y,R30
	RCALL __put_G100
	CPI  R21,0
	BREQ _0x200006B
	SUBI R21,LOW(1)
_0x200006B:
_0x2000065:
	SUBI R19,LOW(1)
	LDD  R26,Y+8
	LDD  R27,Y+8+1
	SBIW R26,2
	BRLO _0x2000058
	RJMP _0x2000057
_0x2000058:
_0x2000055:
	SBRS R16,0
	RJMP _0x200006C
_0x200006D:
	CPI  R21,0
	BREQ _0x200006F
	SUBI R21,LOW(1)
	LDI  R30,LOW(32)
	ST   -Y,R30
	LDD  R30,Y+15
	LDD  R31,Y+15+1
	ST   -Y,R31
	ST   -Y,R30
	MOVW R30,R28
	ADIW R30,15
	ST   -Y,R31
	ST   -Y,R30
	RCALL __put_G100
	RJMP _0x200006D
_0x200006F:
_0x200006C:
_0x2000070:
_0x200002F:
_0x20000BC:
	LDI  R17,LOW(0)
_0x200001A:
	RJMP _0x2000015
_0x2000017:
	RCALL __LOADLOCR6
	ADIW R28,20
	RET
_printf:
	PUSH R15
	MOV  R15,R24
	SBIW R28,2
	RCALL __SAVELOCR2
	MOVW R26,R28
	RCALL __ADDW2R15
	MOVW R16,R26
	LDI  R30,0
	STD  Y+2,R30
	STD  Y+2+1,R30
	MOVW R26,R28
	ADIW R26,4
	RCALL __ADDW2R15
	RCALL __GETW1P
	ST   -Y,R31
	ST   -Y,R30
	ST   -Y,R17
	ST   -Y,R16
	MOVW R30,R28
	ADIW R30,6
	ST   -Y,R31
	ST   -Y,R30
	LDI  R30,LOW(0)
	LDI  R31,HIGH(0)
	ST   -Y,R31
	ST   -Y,R30
	RCALL __print_G100
	RCALL __LOADLOCR2
	ADIW R28,4
	POP  R15
	RET

	.CSEG
_strlen:
    ld   r26,y+
    ld   r27,y+
    clr  r30
    clr  r31
strlen0:
    ld   r22,x+
    tst  r22
    breq strlen1
    adiw r30,1
    rjmp strlen0
strlen1:
    ret
_strlenf:
    clr  r26
    clr  r27
    ld   r30,y+
    ld   r31,y+
strlenf0:
    lpm  r0,z+
    tst  r0
    breq strlenf1
    adiw r26,1
    rjmp strlenf0
strlenf1:
    movw r30,r26
    ret

	.CSEG

	.DSEG
_data:
	.BYTE 0x1
_rx_buffer:
	.BYTE 0x8
_rx_wr_index:
	.BYTE 0x1
_rx_rd_index:
	.BYTE 0x1
_rx_counter:
	.BYTE 0x1
_p_S1010024:
	.BYTE 0x2

	.CSEG

	.CSEG
__ADDW2R15:
	CLR  R0
	ADD  R26,R15
	ADC  R27,R0
	RET

__ANEGW1:
	NEG  R31
	NEG  R30
	SBCI R31,0
	RET

__GETW1P:
	LD   R30,X+
	LD   R31,X
	SBIW R26,1
	RET

__GETW1PF:
	LPM  R0,Z+
	LPM  R31,Z
	MOV  R30,R0
	RET

__PUTPARD1:
	ST   -Y,R23
	ST   -Y,R22
	ST   -Y,R31
	ST   -Y,R30
	RET

__SAVELOCR6:
	ST   -Y,R21
__SAVELOCR5:
	ST   -Y,R20
__SAVELOCR4:
	ST   -Y,R19
__SAVELOCR3:
	ST   -Y,R18
__SAVELOCR2:
	ST   -Y,R17
	ST   -Y,R16
	RET

__LOADLOCR6:
	LDD  R21,Y+5
__LOADLOCR5:
	LDD  R20,Y+4
__LOADLOCR4:
	LDD  R19,Y+3
__LOADLOCR3:
	LDD  R18,Y+2
__LOADLOCR2:
	LDD  R17,Y+1
	LD   R16,Y
	RET

;END OF CODE MARKER
__END_OF_CODE:
