
;CodeVisionAVR C Compiler V2.03.4 Standard
;(C) Copyright 1998-2008 Pavel Haiduc, HP InfoTech s.r.l.
;http://www.hpinfotech.com

;Chip type              : ATmega8L
;Program type           : Application
;Clock frequency        : 8,000000 MHz
;Memory model           : Small
;Optimize for           : Size
;(s)printf features     : int, width
;(s)scanf features      : int, width
;External RAM size      : 0
;Data Stack size        : 256 byte(s)
;Heap size              : 0 byte(s)
;Promote char to int    : Yes
;char is unsigned       : Yes
;global const stored in FLASH  : Yes
;8 bit enums            : Yes
;Enhanced core instructions    : On
;Smart register allocation : On
;Automatic register allocation : On

	#pragma AVRPART ADMIN PART_NAME ATmega8L
	#pragma AVRPART MEMORY PROG_FLASH 8192
	#pragma AVRPART MEMORY EEPROM 512
	#pragma AVRPART MEMORY INT_SRAM SIZE 1024
	#pragma AVRPART MEMORY INT_SRAM START_ADDR 0x60

	.LISTMAC
	.EQU UDRE=0x5
	.EQU RXC=0x7
	.EQU USR=0xB
	.EQU UDR=0xC
	.EQU SPSR=0xE
	.EQU SPDR=0xF
	.EQU EERE=0x0
	.EQU EEWE=0x1
	.EQU EEMWE=0x2
	.EQU EECR=0x1C
	.EQU EEDR=0x1D
	.EQU EEARL=0x1E
	.EQU EEARH=0x1F
	.EQU WDTCR=0x21
	.EQU MCUCR=0x35
	.EQU GICR=0x3B
	.EQU SPL=0x3D
	.EQU SPH=0x3E
	.EQU SREG=0x3F

	.DEF R0X0=R0
	.DEF R0X1=R1
	.DEF R0X2=R2
	.DEF R0X3=R3
	.DEF R0X4=R4
	.DEF R0X5=R5
	.DEF R0X6=R6
	.DEF R0X7=R7
	.DEF R0X8=R8
	.DEF R0X9=R9
	.DEF R0XA=R10
	.DEF R0XB=R11
	.DEF R0XC=R12
	.DEF R0XD=R13
	.DEF R0XE=R14
	.DEF R0XF=R15
	.DEF R0X10=R16
	.DEF R0X11=R17
	.DEF R0X12=R18
	.DEF R0X13=R19
	.DEF R0X14=R20
	.DEF R0X15=R21
	.DEF R0X16=R22
	.DEF R0X17=R23
	.DEF R0X18=R24
	.DEF R0X19=R25
	.DEF R0X1A=R26
	.DEF R0X1B=R27
	.DEF R0X1C=R28
	.DEF R0X1D=R29
	.DEF R0X1E=R30
	.DEF R0X1F=R31

	.MACRO __CPD1N
	CPI  R30,LOW(@0)
	LDI  R26,HIGH(@0)
	CPC  R31,R26
	LDI  R26,BYTE3(@0)
	CPC  R22,R26
	LDI  R26,BYTE4(@0)
	CPC  R23,R26
	.ENDM

	.MACRO __CPD2N
	CPI  R26,LOW(@0)
	LDI  R30,HIGH(@0)
	CPC  R27,R30
	LDI  R30,BYTE3(@0)
	CPC  R24,R30
	LDI  R30,BYTE4(@0)
	CPC  R25,R30
	.ENDM

	.MACRO __CPWRR
	CP   R@0,R@2
	CPC  R@1,R@3
	.ENDM

	.MACRO __CPWRN
	CPI  R@0,LOW(@2)
	LDI  R30,HIGH(@2)
	CPC  R@1,R30
	.ENDM

	.MACRO __ADDB1MN
	SUBI R30,LOW(-@0-(@1))
	.ENDM

	.MACRO __ADDB2MN
	SUBI R26,LOW(-@0-(@1))
	.ENDM

	.MACRO __ADDW1MN
	SUBI R30,LOW(-@0-(@1))
	SBCI R31,HIGH(-@0-(@1))
	.ENDM

	.MACRO __ADDW2MN
	SUBI R26,LOW(-@0-(@1))
	SBCI R27,HIGH(-@0-(@1))
	.ENDM

	.MACRO __ADDW1FN
	SUBI R30,LOW(-2*@0-(@1))
	SBCI R31,HIGH(-2*@0-(@1))
	.ENDM

	.MACRO __ADDD1FN
	SUBI R30,LOW(-2*@0-(@1))
	SBCI R31,HIGH(-2*@0-(@1))
	SBCI R22,BYTE3(-2*@0-(@1))
	.ENDM

	.MACRO __ADDD1N
	SUBI R30,LOW(-@0)
	SBCI R31,HIGH(-@0)
	SBCI R22,BYTE3(-@0)
	SBCI R23,BYTE4(-@0)
	.ENDM

	.MACRO __ADDD2N
	SUBI R26,LOW(-@0)
	SBCI R27,HIGH(-@0)
	SBCI R24,BYTE3(-@0)
	SBCI R25,BYTE4(-@0)
	.ENDM

	.MACRO __SUBD1N
	SUBI R30,LOW(@0)
	SBCI R31,HIGH(@0)
	SBCI R22,BYTE3(@0)
	SBCI R23,BYTE4(@0)
	.ENDM

	.MACRO __SUBD2N
	SUBI R26,LOW(@0)
	SBCI R27,HIGH(@0)
	SBCI R24,BYTE3(@0)
	SBCI R25,BYTE4(@0)
	.ENDM

	.MACRO __ANDBMNN
	LDS  R30,@0+@1
	ANDI R30,LOW(@2)
	STS  @0+@1,R30
	.ENDM

	.MACRO __ANDWMNN
	LDS  R30,@0+@1
	ANDI R30,LOW(@2)
	STS  @0+@1,R30
	LDS  R30,@0+@1+1
	ANDI R30,HIGH(@2)
	STS  @0+@1+1,R30
	.ENDM

	.MACRO __ANDD1N
	ANDI R30,LOW(@0)
	ANDI R31,HIGH(@0)
	ANDI R22,BYTE3(@0)
	ANDI R23,BYTE4(@0)
	.ENDM

	.MACRO __ANDD2N
	ANDI R26,LOW(@0)
	ANDI R27,HIGH(@0)
	ANDI R24,BYTE3(@0)
	ANDI R25,BYTE4(@0)
	.ENDM

	.MACRO __ORBMNN
	LDS  R30,@0+@1
	ORI  R30,LOW(@2)
	STS  @0+@1,R30
	.ENDM

	.MACRO __ORWMNN
	LDS  R30,@0+@1
	ORI  R30,LOW(@2)
	STS  @0+@1,R30
	LDS  R30,@0+@1+1
	ORI  R30,HIGH(@2)
	STS  @0+@1+1,R30
	.ENDM

	.MACRO __ORD1N
	ORI  R30,LOW(@0)
	ORI  R31,HIGH(@0)
	ORI  R22,BYTE3(@0)
	ORI  R23,BYTE4(@0)
	.ENDM

	.MACRO __ORD2N
	ORI  R26,LOW(@0)
	ORI  R27,HIGH(@0)
	ORI  R24,BYTE3(@0)
	ORI  R25,BYTE4(@0)
	.ENDM

	.MACRO __DELAY_USB
	LDI  R24,LOW(@0)
__DELAY_USB_LOOP:
	DEC  R24
	BRNE __DELAY_USB_LOOP
	.ENDM

	.MACRO __DELAY_USW
	LDI  R24,LOW(@0)
	LDI  R25,HIGH(@0)
__DELAY_USW_LOOP:
	SBIW R24,1
	BRNE __DELAY_USW_LOOP
	.ENDM

	.MACRO __CLRD1S
	LDI  R30,0
	STD  Y+@0,R30
	STD  Y+@0+1,R30
	STD  Y+@0+2,R30
	STD  Y+@0+3,R30
	.ENDM

	.MACRO __GETD1S
	LDD  R30,Y+@0
	LDD  R31,Y+@0+1
	LDD  R22,Y+@0+2
	LDD  R23,Y+@0+3
	.ENDM

	.MACRO __PUTD1S
	STD  Y+@0,R30
	STD  Y+@0+1,R31
	STD  Y+@0+2,R22
	STD  Y+@0+3,R23
	.ENDM

	.MACRO __PUTD2S
	STD  Y+@0,R26
	STD  Y+@0+1,R27
	STD  Y+@0+2,R24
	STD  Y+@0+3,R25
	.ENDM

	.MACRO __POINTB1MN
	LDI  R30,LOW(@0+@1)
	.ENDM

	.MACRO __POINTW1MN
	LDI  R30,LOW(@0+@1)
	LDI  R31,HIGH(@0+@1)
	.ENDM

	.MACRO __POINTD1M
	LDI  R30,LOW(@0)
	LDI  R31,HIGH(@0)
	LDI  R22,BYTE3(@0)
	LDI  R23,BYTE4(@0)
	.ENDM

	.MACRO __POINTW1FN
	LDI  R30,LOW(2*@0+@1)
	LDI  R31,HIGH(2*@0+@1)
	.ENDM

	.MACRO __POINTD1FN
	LDI  R30,LOW(2*@0+@1)
	LDI  R31,HIGH(2*@0+@1)
	LDI  R22,BYTE3(2*@0+@1)
	LDI  R23,BYTE4(2*@0+@1)
	.ENDM

	.MACRO __POINTB2MN
	LDI  R26,LOW(@0+@1)
	.ENDM

	.MACRO __POINTW2MN
	LDI  R26,LOW(@0+@1)
	LDI  R27,HIGH(@0+@1)
	.ENDM

	.MACRO __POINTBRM
	LDI  R@0,LOW(@1)
	.ENDM

	.MACRO __POINTWRM
	LDI  R@0,LOW(@2)
	LDI  R@1,HIGH(@2)
	.ENDM

	.MACRO __POINTBRMN
	LDI  R@0,LOW(@1+@2)
	.ENDM

	.MACRO __POINTWRMN
	LDI  R@0,LOW(@2+@3)
	LDI  R@1,HIGH(@2+@3)
	.ENDM

	.MACRO __POINTWRFN
	LDI  R@0,LOW(@2*2+@3)
	LDI  R@1,HIGH(@2*2+@3)
	.ENDM

	.MACRO __GETD1N
	LDI  R30,LOW(@0)
	LDI  R31,HIGH(@0)
	LDI  R22,BYTE3(@0)
	LDI  R23,BYTE4(@0)
	.ENDM

	.MACRO __GETD2N
	LDI  R26,LOW(@0)
	LDI  R27,HIGH(@0)
	LDI  R24,BYTE3(@0)
	LDI  R25,BYTE4(@0)
	.ENDM

	.MACRO __GETD2S
	LDD  R26,Y+@0
	LDD  R27,Y+@0+1
	LDD  R24,Y+@0+2
	LDD  R25,Y+@0+3
	.ENDM

	.MACRO __GETB1MN
	LDS  R30,@0+@1
	.ENDM

	.MACRO __GETB1HMN
	LDS  R31,@0+@1
	.ENDM

	.MACRO __GETW1MN
	LDS  R30,@0+@1
	LDS  R31,@0+@1+1
	.ENDM

	.MACRO __GETD1MN
	LDS  R30,@0+@1
	LDS  R31,@0+@1+1
	LDS  R22,@0+@1+2
	LDS  R23,@0+@1+3
	.ENDM

	.MACRO __GETBRMN
	LDS  R@0,@1+@2
	.ENDM

	.MACRO __GETWRMN
	LDS  R@0,@2+@3
	LDS  R@1,@2+@3+1
	.ENDM

	.MACRO __GETWRZ
	LDD  R@0,Z+@2
	LDD  R@1,Z+@2+1
	.ENDM

	.MACRO __GETD2Z
	LDD  R26,Z+@0
	LDD  R27,Z+@0+1
	LDD  R24,Z+@0+2
	LDD  R25,Z+@0+3
	.ENDM

	.MACRO __GETB2MN
	LDS  R26,@0+@1
	.ENDM

	.MACRO __GETW2MN
	LDS  R26,@0+@1
	LDS  R27,@0+@1+1
	.ENDM

	.MACRO __GETD2MN
	LDS  R26,@0+@1
	LDS  R27,@0+@1+1
	LDS  R24,@0+@1+2
	LDS  R25,@0+@1+3
	.ENDM

	.MACRO __PUTB1MN
	STS  @0+@1,R30
	.ENDM

	.MACRO __PUTW1MN
	STS  @0+@1,R30
	STS  @0+@1+1,R31
	.ENDM

	.MACRO __PUTD1MN
	STS  @0+@1,R30
	STS  @0+@1+1,R31
	STS  @0+@1+2,R22
	STS  @0+@1+3,R23
	.ENDM

	.MACRO __PUTB1EN
	LDI  R26,LOW(@0+@1)
	LDI  R27,HIGH(@0+@1)
	RCALL __EEPROMWRB
	.ENDM

	.MACRO __PUTW1EN
	LDI  R26,LOW(@0+@1)
	LDI  R27,HIGH(@0+@1)
	RCALL __EEPROMWRW
	.ENDM

	.MACRO __PUTD1EN
	LDI  R26,LOW(@0+@1)
	LDI  R27,HIGH(@0+@1)
	RCALL __EEPROMWRD
	.ENDM

	.MACRO __PUTBR0MN
	STS  @0+@1,R0
	.ENDM

	.MACRO __PUTDZ2
	STD  Z+@0,R26
	STD  Z+@0+1,R27
	STD  Z+@0+2,R24
	STD  Z+@0+3,R25
	.ENDM

	.MACRO __PUTBMRN
	STS  @0+@1,R@2
	.ENDM

	.MACRO __PUTWMRN
	STS  @0+@1,R@2
	STS  @0+@1+1,R@3
	.ENDM

	.MACRO __PUTBZR
	STD  Z+@1,R@0
	.ENDM

	.MACRO __PUTWZR
	STD  Z+@2,R@0
	STD  Z+@2+1,R@1
	.ENDM

	.MACRO __GETW1R
	MOV  R30,R@0
	MOV  R31,R@1
	.ENDM

	.MACRO __GETW2R
	MOV  R26,R@0
	MOV  R27,R@1
	.ENDM

	.MACRO __GETWRN
	LDI  R@0,LOW(@2)
	LDI  R@1,HIGH(@2)
	.ENDM

	.MACRO __PUTW1R
	MOV  R@0,R30
	MOV  R@1,R31
	.ENDM

	.MACRO __PUTW2R
	MOV  R@0,R26
	MOV  R@1,R27
	.ENDM

	.MACRO __ADDWRN
	SUBI R@0,LOW(-@2)
	SBCI R@1,HIGH(-@2)
	.ENDM

	.MACRO __ADDWRR
	ADD  R@0,R@2
	ADC  R@1,R@3
	.ENDM

	.MACRO __SUBWRN
	SUBI R@0,LOW(@2)
	SBCI R@1,HIGH(@2)
	.ENDM

	.MACRO __SUBWRR
	SUB  R@0,R@2
	SBC  R@1,R@3
	.ENDM

	.MACRO __ANDWRN
	ANDI R@0,LOW(@2)
	ANDI R@1,HIGH(@2)
	.ENDM

	.MACRO __ANDWRR
	AND  R@0,R@2
	AND  R@1,R@3
	.ENDM

	.MACRO __ORWRN
	ORI  R@0,LOW(@2)
	ORI  R@1,HIGH(@2)
	.ENDM

	.MACRO __ORWRR
	OR   R@0,R@2
	OR   R@1,R@3
	.ENDM

	.MACRO __EORWRR
	EOR  R@0,R@2
	EOR  R@1,R@3
	.ENDM

	.MACRO __GETWRS
	LDD  R@0,Y+@2
	LDD  R@1,Y+@2+1
	.ENDM

	.MACRO __PUTWSR
	STD  Y+@2,R@0
	STD  Y+@2+1,R@1
	.ENDM

	.MACRO __MOVEWRR
	MOV  R@0,R@2
	MOV  R@1,R@3
	.ENDM

	.MACRO __INWR
	IN   R@0,@2
	IN   R@1,@2+1
	.ENDM

	.MACRO __OUTWR
	OUT  @2+1,R@1
	OUT  @2,R@0
	.ENDM

	.MACRO __CALL1MN
	LDS  R30,@0+@1
	LDS  R31,@0+@1+1
	ICALL
	.ENDM

	.MACRO __CALL1FN
	LDI  R30,LOW(2*@0+@1)
	LDI  R31,HIGH(2*@0+@1)
	RCALL __GETW1PF
	ICALL
	.ENDM

	.MACRO __CALL2EN
	LDI  R26,LOW(@0+@1)
	LDI  R27,HIGH(@0+@1)
	RCALL __EEPROMRDW
	ICALL
	.ENDM

	.MACRO __GETW1STACK
	IN   R26,SPL
	IN   R27,SPH
	ADIW R26,@0+1
	LD   R30,X+
	LD   R31,X
	.ENDM

	.MACRO __NBST
	BST  R@0,@1
	IN   R30,SREG
	LDI  R31,0x40
	EOR  R30,R31
	OUT  SREG,R30
	.ENDM


	.MACRO __PUTB1SN
	LDD  R26,Y+@0
	LDD  R27,Y+@0+1
	SUBI R26,LOW(-@1)
	SBCI R27,HIGH(-@1)
	ST   X,R30
	.ENDM

	.MACRO __PUTW1SN
	LDD  R26,Y+@0
	LDD  R27,Y+@0+1
	SUBI R26,LOW(-@1)
	SBCI R27,HIGH(-@1)
	ST   X+,R30
	ST   X,R31
	.ENDM

	.MACRO __PUTD1SN
	LDD  R26,Y+@0
	LDD  R27,Y+@0+1
	SUBI R26,LOW(-@1)
	SBCI R27,HIGH(-@1)
	RCALL __PUTDP1
	.ENDM

	.MACRO __PUTB1SNS
	LDD  R26,Y+@0
	LDD  R27,Y+@0+1
	ADIW R26,@1
	ST   X,R30
	.ENDM

	.MACRO __PUTW1SNS
	LDD  R26,Y+@0
	LDD  R27,Y+@0+1
	ADIW R26,@1
	ST   X+,R30
	ST   X,R31
	.ENDM

	.MACRO __PUTD1SNS
	LDD  R26,Y+@0
	LDD  R27,Y+@0+1
	ADIW R26,@1
	RCALL __PUTDP1
	.ENDM

	.MACRO __PUTB1PMN
	LDS  R26,@0
	LDS  R27,@0+1
	SUBI R26,LOW(-@1)
	SBCI R27,HIGH(-@1)
	ST   X,R30
	.ENDM

	.MACRO __PUTW1PMN
	LDS  R26,@0
	LDS  R27,@0+1
	SUBI R26,LOW(-@1)
	SBCI R27,HIGH(-@1)
	ST   X+,R30
	ST   X,R31
	.ENDM

	.MACRO __PUTD1PMN
	LDS  R26,@0
	LDS  R27,@0+1
	SUBI R26,LOW(-@1)
	SBCI R27,HIGH(-@1)
	RCALL __PUTDP1
	.ENDM

	.MACRO __PUTB1PMNS
	LDS  R26,@0
	LDS  R27,@0+1
	ADIW R26,@1
	ST   X,R30
	.ENDM

	.MACRO __PUTW1PMNS
	LDS  R26,@0
	LDS  R27,@0+1
	ADIW R26,@1
	ST   X+,R30
	ST   X,R31
	.ENDM

	.MACRO __PUTD1PMNS
	LDS  R26,@0
	LDS  R27,@0+1
	ADIW R26,@1
	RCALL __PUTDP1
	.ENDM

	.MACRO __PUTB1RN
	MOVW R26,R@0
	SUBI R26,LOW(-@1)
	SBCI R27,HIGH(-@1)
	ST   X,R30
	.ENDM

	.MACRO __PUTW1RN
	MOVW R26,R@0
	SUBI R26,LOW(-@1)
	SBCI R27,HIGH(-@1)
	ST   X+,R30
	ST   X,R31
	.ENDM

	.MACRO __PUTD1RN
	MOVW R26,R@0
	SUBI R26,LOW(-@1)
	SBCI R27,HIGH(-@1)
	RCALL __PUTDP1
	.ENDM

	.MACRO __PUTB1RNS
	MOVW R26,R@0
	ADIW R26,@1
	ST   X,R30
	.ENDM

	.MACRO __PUTW1RNS
	MOVW R26,R@0
	ADIW R26,@1
	ST   X+,R30
	ST   X,R31
	.ENDM

	.MACRO __PUTD1RNS
	MOVW R26,R@0
	ADIW R26,@1
	RCALL __PUTDP1
	.ENDM

	.MACRO __PUTB1RON
	MOV  R26,R@0
	MOV  R27,R@1
	SUBI R26,LOW(-@2)
	SBCI R27,HIGH(-@2)
	ST   X,R30
	.ENDM

	.MACRO __PUTW1RON
	MOV  R26,R@0
	MOV  R27,R@1
	SUBI R26,LOW(-@2)
	SBCI R27,HIGH(-@2)
	ST   X+,R30
	ST   X,R31
	.ENDM

	.MACRO __PUTD1RON
	MOV  R26,R@0
	MOV  R27,R@1
	SUBI R26,LOW(-@2)
	SBCI R27,HIGH(-@2)
	RCALL __PUTDP1
	.ENDM

	.MACRO __PUTB1RONS
	MOV  R26,R@0
	MOV  R27,R@1
	ADIW R26,@2
	ST   X,R30
	.ENDM

	.MACRO __PUTW1RONS
	MOV  R26,R@0
	MOV  R27,R@1
	ADIW R26,@2
	ST   X+,R30
	ST   X,R31
	.ENDM

	.MACRO __PUTD1RONS
	MOV  R26,R@0
	MOV  R27,R@1
	ADIW R26,@2
	RCALL __PUTDP1
	.ENDM


	.MACRO __GETB1SX
	MOVW R30,R28
	SUBI R30,LOW(-@0)
	SBCI R31,HIGH(-@0)
	LD   R30,Z
	.ENDM

	.MACRO __GETB1HSX
	MOVW R30,R28
	SUBI R30,LOW(-@0)
	SBCI R31,HIGH(-@0)
	LD   R31,Z
	.ENDM

	.MACRO __GETW1SX
	MOVW R30,R28
	SUBI R30,LOW(-@0)
	SBCI R31,HIGH(-@0)
	LD   R0,Z+
	LD   R31,Z
	MOV  R30,R0
	.ENDM

	.MACRO __GETD1SX
	MOVW R30,R28
	SUBI R30,LOW(-@0)
	SBCI R31,HIGH(-@0)
	LD   R0,Z+
	LD   R1,Z+
	LD   R22,Z+
	LD   R23,Z
	MOVW R30,R0
	.ENDM

	.MACRO __GETB2SX
	MOVW R26,R28
	SUBI R26,LOW(-@0)
	SBCI R27,HIGH(-@0)
	LD   R26,X
	.ENDM

	.MACRO __GETW2SX
	MOVW R26,R28
	SUBI R26,LOW(-@0)
	SBCI R27,HIGH(-@0)
	LD   R0,X+
	LD   R27,X
	MOV  R26,R0
	.ENDM

	.MACRO __GETD2SX
	MOVW R26,R28
	SUBI R26,LOW(-@0)
	SBCI R27,HIGH(-@0)
	LD   R0,X+
	LD   R1,X+
	LD   R24,X+
	LD   R25,X
	MOVW R26,R0
	.ENDM

	.MACRO __GETBRSX
	MOVW R30,R28
	SUBI R30,LOW(-@1)
	SBCI R31,HIGH(-@1)
	LD   R@0,Z
	.ENDM

	.MACRO __GETWRSX
	MOVW R30,R28
	SUBI R30,LOW(-@2)
	SBCI R31,HIGH(-@2)
	LD   R@0,Z+
	LD   R@1,Z
	.ENDM

	.MACRO __LSLW8SX
	MOVW R30,R28
	SUBI R30,LOW(-@0)
	SBCI R31,HIGH(-@0)
	LD   R31,Z
	CLR  R30
	.ENDM

	.MACRO __PUTB1SX
	MOVW R26,R28
	SUBI R26,LOW(-@0)
	SBCI R27,HIGH(-@0)
	ST   X,R30
	.ENDM

	.MACRO __PUTW1SX
	MOVW R26,R28
	SUBI R26,LOW(-@0)
	SBCI R27,HIGH(-@0)
	ST   X+,R30
	ST   X,R31
	.ENDM

	.MACRO __PUTD1SX
	MOVW R26,R28
	SUBI R26,LOW(-@0)
	SBCI R27,HIGH(-@0)
	ST   X+,R30
	ST   X+,R31
	ST   X+,R22
	ST   X,R23
	.ENDM

	.MACRO __CLRW1SX
	MOVW R30,R28
	SUBI R30,LOW(-@0)
	SBCI R31,HIGH(-@0)
	CLR  R0
	ST   Z+,R0
	ST   Z,R0
	.ENDM

	.MACRO __CLRD1SX
	MOVW R30,R28
	SUBI R30,LOW(-@0)
	SBCI R31,HIGH(-@0)
	CLR  R0
	ST   Z+,R0
	ST   Z+,R0
	ST   Z+,R0
	ST   Z,R0
	.ENDM

	.MACRO __PUTB2SX
	MOVW R30,R28
	SUBI R30,LOW(-@0)
	SBCI R31,HIGH(-@0)
	ST   Z,R26
	.ENDM

	.MACRO __PUTW2SX
	MOVW R30,R28
	SUBI R30,LOW(-@0)
	SBCI R31,HIGH(-@0)
	ST   Z+,R26
	ST   Z,R27
	.ENDM

	.MACRO __PUTD2SX
	MOVW R30,R28
	SUBI R30,LOW(-@0)
	SBCI R31,HIGH(-@0)
	ST   Z+,R26
	ST   Z+,R27
	ST   Z+,R24
	ST   Z,R25
	.ENDM

	.MACRO __PUTBSRX
	MOVW R30,R28
	SUBI R30,LOW(-@0)
	SBCI R31,HIGH(-@0)
	ST   Z,R@1
	.ENDM

	.MACRO __PUTWSRX
	MOVW R30,R28
	SUBI R30,LOW(-@2)
	SBCI R31,HIGH(-@2)
	ST   Z+,R@0
	ST   Z,R@1
	.ENDM

	.MACRO __PUTB1SNX
	MOVW R26,R28
	SUBI R26,LOW(-@0)
	SBCI R27,HIGH(-@0)
	LD   R0,X+
	LD   R27,X
	MOV  R26,R0
	SUBI R26,LOW(-@1)
	SBCI R27,HIGH(-@1)
	ST   X,R30
	.ENDM

	.MACRO __PUTW1SNX
	MOVW R26,R28
	SUBI R26,LOW(-@0)
	SBCI R27,HIGH(-@0)
	LD   R0,X+
	LD   R27,X
	MOV  R26,R0
	SUBI R26,LOW(-@1)
	SBCI R27,HIGH(-@1)
	ST   X+,R30
	ST   X,R31
	.ENDM

	.MACRO __PUTD1SNX
	MOVW R26,R28
	SUBI R26,LOW(-@0)
	SBCI R27,HIGH(-@0)
	LD   R0,X+
	LD   R27,X
	MOV  R26,R0
	SUBI R26,LOW(-@1)
	SBCI R27,HIGH(-@1)
	ST   X+,R30
	ST   X+,R31
	ST   X+,R22
	ST   X,R23
	.ENDM

	.MACRO __MULBRR
	MULS R@0,R@1
	MOVW R30,R0
	.ENDM

	.MACRO __MULBRRU
	MUL  R@0,R@1
	MOVW R30,R0
	.ENDM

	.MACRO __MULBRR0
	MULS R@0,R@1
	.ENDM

	.MACRO __MULBRRU0
	MUL  R@0,R@1
	.ENDM

	.MACRO __MULBNWRU
	LDI  R26,@2
	MUL  R26,R@0
	MOVW R30,R0
	MUL  R26,R@1
	ADD  R31,R0
	.ENDM

;NAME DEFINITIONS FOR GLOBAL VARIABLES ALLOCATED TO REGISTERS
	.DEF _x=R4
	.DEF _num1=R6
	.DEF _d=R8
	.DEF _d1=R10
	.DEF _d2=R12

	.CSEG
	.ORG 0x00

;INTERRUPT VECTORS
	RJMP __RESET
	RJMP _ext_int0_isr
	RJMP 0x00
	RJMP 0x00
	RJMP 0x00
	RJMP 0x00
	RJMP _timer1_compa_isr
	RJMP 0x00
	RJMP 0x00
	RJMP 0x00
	RJMP 0x00
	RJMP 0x00
	RJMP 0x00
	RJMP 0x00
	RJMP 0x00
	RJMP 0x00
	RJMP 0x00
	RJMP 0x00
	RJMP 0x00

_tbl10_G100:
	.DB  0x10,0x27,0xE8,0x3,0x64,0x0,0xA,0x0
	.DB  0x1,0x0
_tbl16_G100:
	.DB  0x0,0x10,0x0,0x1,0x10,0x0,0x1,0x0

_0x15:
	.DB  0x0,0x0,0x0,0x0,0x0,0x0
_0x0:
	.DB  0x20,0x25,0x64,0x0

__GLOBAL_INI_TBL:
	.DW  0x06
	.DW  0x08
	.DW  _0x15*2

_0xFFFFFFFF:
	.DW  0

__RESET:
	CLI
	CLR  R30
	OUT  EECR,R30

;INTERRUPT VECTORS ARE PLACED
;AT THE START OF FLASH
	LDI  R31,1
	OUT  GICR,R31
	OUT  GICR,R30
	OUT  MCUCR,R30

;DISABLE WATCHDOG
	LDI  R31,0x18
	OUT  WDTCR,R31
	OUT  WDTCR,R30

;CLEAR R2-R14
	LDI  R24,(14-2)+1
	LDI  R26,2
	CLR  R27
__CLEAR_REG:
	ST   X+,R30
	DEC  R24
	BRNE __CLEAR_REG

;CLEAR SRAM
	LDI  R24,LOW(0x400)
	LDI  R25,HIGH(0x400)
	LDI  R26,0x60
__CLEAR_SRAM:
	ST   X+,R30
	SBIW R24,1
	BRNE __CLEAR_SRAM

;GLOBAL VARIABLES INITIALIZATION
	LDI  R30,LOW(__GLOBAL_INI_TBL*2)
	LDI  R31,HIGH(__GLOBAL_INI_TBL*2)
__GLOBAL_INI_NEXT:
	LPM  R24,Z+
	LPM  R25,Z+
	SBIW R24,0
	BREQ __GLOBAL_INI_END
	LPM  R26,Z+
	LPM  R27,Z+
	LPM  R0,Z+
	LPM  R1,Z+
	MOVW R22,R30
	MOVW R30,R0
__GLOBAL_INI_LOOP:
	LPM  R0,Z+
	ST   X+,R0
	SBIW R24,1
	BRNE __GLOBAL_INI_LOOP
	MOVW R30,R22
	RJMP __GLOBAL_INI_NEXT
__GLOBAL_INI_END:

;STACK POINTER INITIALIZATION
	LDI  R30,LOW(0x45F)
	OUT  SPL,R30
	LDI  R30,HIGH(0x45F)
	OUT  SPH,R30

;DATA STACK POINTER INITIALIZATION
	LDI  R28,LOW(0x160)
	LDI  R29,HIGH(0x160)

	RJMP _main

	.ESEG
	.ORG 0

	.DSEG
	.ORG 0x160

	.CSEG
;#include <mega8.h>
	#ifndef __SLEEP_DEFINED__
	#define __SLEEP_DEFINED__
	.EQU __se_bit=0x80
	.EQU __sm_mask=0x70
	.EQU __sm_powerdown=0x20
	.EQU __sm_powersave=0x30
	.EQU __sm_standby=0x60
	.EQU __sm_ext_standby=0x70
	.EQU __sm_adc_noise_red=0x10
	.SET power_ctrl_reg=mcucr
	#endif
;#include <stdio.h>
;#include <delay.h>
;#include <bcd.h>
;int x,num1;
;int d=0,d1=0,d2=0,d3=0;
;
;interrupt [EXT_INT0] void ext_int0_isr(void)
; 0000 0009 {

	.CSEG
_ext_int0_isr:
; 0000 000A }
	RETI
;interrupt [TIM1_COMPA] void timer1_compa_isr(void)
; 0000 000C {
_timer1_compa_isr:
	ST   -Y,R0
	ST   -Y,R1
	ST   -Y,R15
	ST   -Y,R22
	ST   -Y,R23
	ST   -Y,R24
	ST   -Y,R25
	ST   -Y,R26
	ST   -Y,R27
	ST   -Y,R30
	ST   -Y,R31
	IN   R30,SREG
	ST   -Y,R30
; 0000 000D PORTB^=0b00000001;
	IN   R30,0x18
	RCALL SUBOPT_0x0
	LDI  R26,LOW(1)
	LDI  R27,HIGH(1)
	EOR  R30,R26
	EOR  R31,R27
	OUT  0x18,R30
; 0000 000E //TCNT1H=0;
; 0000 000F //TCNT1L=0;
; 0000 0010 if (x<=15){
	LDI  R30,LOW(15)
	LDI  R31,HIGH(15)
	CP   R30,R4
	CPC  R31,R5
	BRLT _0x3
; 0000 0011 //d = d | (1 << PIND.2);
; 0000 0012 d=d<<1;
	LSL  R8
	ROL  R9
; 0000 0013 if (PIND.2==1) {d|=1;x++;};
	RCALL SUBOPT_0x1
	BRNE _0x4
	LDI  R30,LOW(1)
	OR   R8,R30
	RCALL SUBOPT_0x2
_0x4:
; 0000 0014 if (PIND.2==0) {d&=~1;x++;};}
	SBIS 0x10,2
	RCALL SUBOPT_0x3
; 0000 0015 
; 0000 0016 if (x>15 & x<=30){
_0x3:
	MOVW R26,R4
	LDI  R30,LOW(15)
	LDI  R31,HIGH(15)
	RCALL SUBOPT_0x4
	LDI  R30,LOW(30)
	LDI  R31,HIGH(30)
	RCALL __LEW12
	AND  R30,R0
	BREQ _0x6
; 0000 0017 d1 = d1 << 1;
	LSL  R10
	ROL  R11
; 0000 0018 if (PIND.2==1) {d1|=1;x++;};
	RCALL SUBOPT_0x1
	BRNE _0x7
	LDI  R30,LOW(1)
	OR   R10,R30
	RCALL SUBOPT_0x2
_0x7:
; 0000 0019 if (PIND.2==0) {d&=~1;x++;};}
	SBIS 0x10,2
	RCALL SUBOPT_0x3
; 0000 001A if (x>30 & x<=45){
_0x6:
	MOVW R26,R4
	LDI  R30,LOW(30)
	LDI  R31,HIGH(30)
	RCALL SUBOPT_0x4
	LDI  R30,LOW(45)
	LDI  R31,HIGH(45)
	RCALL __LEW12
	AND  R30,R0
	BREQ _0x9
; 0000 001B d2 = d2 << 1;
	LSL  R12
	ROL  R13
; 0000 001C if (PIND.2==1) {d2|=1;x++;};
	RCALL SUBOPT_0x1
	BRNE _0xA
	LDI  R30,LOW(1)
	OR   R12,R30
	RCALL SUBOPT_0x2
_0xA:
; 0000 001D if (PIND.2==0) {d&=~1;x++;};}
	SBIS 0x10,2
	RCALL SUBOPT_0x3
; 0000 001E if (x>45 & x<=60){
_0x9:
	MOVW R26,R4
	LDI  R30,LOW(45)
	LDI  R31,HIGH(45)
	RCALL SUBOPT_0x4
	LDI  R30,LOW(60)
	LDI  R31,HIGH(60)
	RCALL __LEW12
	AND  R30,R0
	BREQ _0xC
; 0000 001F d3 = d3 << 1;
	RCALL SUBOPT_0x5
	LSL  R30
	ROL  R31
	RCALL SUBOPT_0x6
; 0000 0020 if (PIND.2==1) {d3|=1;x++;};
	RCALL SUBOPT_0x1
	BRNE _0xD
	RCALL SUBOPT_0x5
	ORI  R30,1
	RCALL SUBOPT_0x6
	RCALL SUBOPT_0x2
_0xD:
; 0000 0021 if (PIND.2==0) {d&=~1;x++;};}
	SBIS 0x10,2
	RCALL SUBOPT_0x3
; 0000 0022 
; 0000 0023 if (x>=60)
_0xC:
	LDI  R30,LOW(60)
	LDI  R31,HIGH(60)
	CP   R4,R30
	CPC  R5,R31
	BRLT _0xF
; 0000 0024 {
; 0000 0025 printf(" %d",d);
	RCALL SUBOPT_0x7
	MOVW R30,R8
	RCALL SUBOPT_0x8
; 0000 0026 printf(" %d",d1);
	MOVW R30,R10
	RCALL SUBOPT_0x8
; 0000 0027 printf(" %d",d2);
	MOVW R30,R12
	RCALL SUBOPT_0x8
; 0000 0028 printf(" %d",d3);
	RCALL SUBOPT_0x5
	RCALL __CWD1
	RCALL __PUTPARD1
	LDI  R24,4
	RCALL _printf
	ADIW R28,6
; 0000 0029 //putchar('\r');
; 0000 002A 
; 0000 002B TCCR1B=0x00;
	LDI  R30,LOW(0)
	OUT  0x2E,R30
; 0000 002C delay_ms(200);
	LDI  R30,LOW(200)
	LDI  R31,HIGH(200)
	RCALL SUBOPT_0x9
	RCALL _delay_ms
; 0000 002D num1=0;
	CLR  R6
	CLR  R7
; 0000 002E x=0;
	CLR  R4
	CLR  R5
; 0000 002F d=d1=d2=d3=0;
	LDI  R30,LOW(0)
	LDI  R31,HIGH(0)
	RCALL SUBOPT_0x6
	MOVW R12,R30
	MOVW R10,R30
	MOVW R8,R30
; 0000 0030 }
; 0000 0031 
; 0000 0032 }
_0xF:
	LD   R30,Y+
	OUT  SREG,R30
	LD   R31,Y+
	LD   R30,Y+
	LD   R27,Y+
	LD   R26,Y+
	LD   R25,Y+
	LD   R24,Y+
	LD   R23,Y+
	LD   R22,Y+
	LD   R15,Y+
	LD   R1,Y+
	LD   R0,Y+
	RETI
;void main(void)
; 0000 0034 {
_main:
; 0000 0035 
; 0000 0036 PORTB=0x00;
	LDI  R30,LOW(0)
	OUT  0x18,R30
; 0000 0037 DDRB=0xFF;
	LDI  R30,LOW(255)
	OUT  0x17,R30
; 0000 0038 PORTC=0x00;
	LDI  R30,LOW(0)
	OUT  0x15,R30
; 0000 0039 DDRC=0x00;
	OUT  0x14,R30
; 0000 003A PORTD=0x00;
	OUT  0x12,R30
; 0000 003B DDRD=0x00;
	OUT  0x11,R30
; 0000 003C TCCR0=0x00;
	OUT  0x33,R30
; 0000 003D TCNT0=0x00;
	OUT  0x32,R30
; 0000 003E 
; 0000 003F TCCR1A=0x00;
	OUT  0x2F,R30
; 0000 0040 TCCR1B=0x00;
	OUT  0x2E,R30
; 0000 0041 TCNT1H=0x00;
	OUT  0x2D,R30
; 0000 0042 TCNT1L=0x00;
	OUT  0x2C,R30
; 0000 0043 ICR1H=0x00;
	OUT  0x27,R30
; 0000 0044 ICR1L=0x00;
	OUT  0x26,R30
; 0000 0045 OCR1AH=0x00;
	OUT  0x2B,R30
; 0000 0046 OCR1AL=0xde;//6f
	LDI  R30,LOW(222)
	OUT  0x2A,R30
; 0000 0047 OCR1BH=0x00;
	LDI  R30,LOW(0)
	OUT  0x29,R30
; 0000 0048 OCR1BL=0x00;
	OUT  0x28,R30
; 0000 0049 
; 0000 004A ASSR=0x00;
	OUT  0x22,R30
; 0000 004B TCCR2=0x00;
	OUT  0x25,R30
; 0000 004C TCNT2=0x00;
	OUT  0x24,R30
; 0000 004D OCR2=0x00;
	OUT  0x23,R30
; 0000 004E 
; 0000 004F MCUCR=0x00;
	OUT  0x35,R30
; 0000 0050 
; 0000 0051 TIMSK=0x10;
	LDI  R30,LOW(16)
	OUT  0x39,R30
; 0000 0052 
; 0000 0053 ACSR=0x80;
	LDI  R30,LOW(128)
	OUT  0x8,R30
; 0000 0054 SFIOR=0x00;
	LDI  R30,LOW(0)
	OUT  0x30,R30
; 0000 0055 
; 0000 0056 UCSRA=0x00;
	OUT  0xB,R30
; 0000 0057 UCSRB=0x18;
	LDI  R30,LOW(24)
	OUT  0xA,R30
; 0000 0058 UCSRC=0x86;
	LDI  R30,LOW(134)
	OUT  0x20,R30
; 0000 0059 UBRRH=0x00;
	LDI  R30,LOW(0)
	OUT  0x20,R30
; 0000 005A UBRRL=0x33;
	LDI  R30,LOW(51)
	OUT  0x9,R30
; 0000 005B 
; 0000 005C GICR|=0x40;
	IN   R30,0x3B
	RCALL SUBOPT_0x0
	ORI  R30,0x40
	OUT  0x3B,R30
; 0000 005D MCUCR=0x02;
	LDI  R30,LOW(2)
	OUT  0x35,R30
; 0000 005E GIFR=0x40;
	LDI  R30,LOW(64)
	OUT  0x3A,R30
; 0000 005F 
; 0000 0060 // Global enable interrupts
; 0000 0061 #asm("sei")
	sei
; 0000 0062 
; 0000 0063 while (1)
_0x10:
; 0000 0064 {
; 0000 0065 if (PIND.2==0 & num1==0)
	LDI  R26,0
	SBIC 0x10,2
	LDI  R26,1
	LDI  R30,LOW(0)
	RCALL __EQB12
	MOV  R0,R30
	MOVW R26,R6
	LDI  R30,LOW(0)
	LDI  R31,HIGH(0)
	RCALL __EQW12
	AND  R30,R0
	BREQ _0x13
; 0000 0066 {
; 0000 0067 TCCR1B=0x09;
	LDI  R30,LOW(9)
	OUT  0x2E,R30
; 0000 0068 num1=1;
	LDI  R30,LOW(1)
	LDI  R31,HIGH(1)
	MOVW R6,R30
; 0000 0069 }
; 0000 006A 
; 0000 006B }
_0x13:
	RJMP _0x10
; 0000 006C }
_0x14:
	RJMP _0x14
	#ifndef __SLEEP_DEFINED__
	#define __SLEEP_DEFINED__
	.EQU __se_bit=0x80
	.EQU __sm_mask=0x70
	.EQU __sm_powerdown=0x20
	.EQU __sm_powersave=0x30
	.EQU __sm_standby=0x60
	.EQU __sm_ext_standby=0x70
	.EQU __sm_adc_noise_red=0x10
	.SET power_ctrl_reg=mcucr
	#endif

	.CSEG
_putchar:
     sbis usr,udre
     rjmp _putchar
     ld   r30,y
     out  udr,r30
	ADIW R28,1
	RET
__put_G100:
	RCALL __SAVELOCR2
	LDD  R26,Y+4
	LDD  R27,Y+4+1
	RCALL __GETW1P
	SBIW R30,0
	BREQ _0x2000010
	LDD  R26,Y+2
	LDD  R27,Y+2+1
	RCALL __GETW1P
	MOVW R16,R30
	SBIW R30,0
	BREQ _0x2000012
	__CPWRN 16,17,2
	BRLO _0x2000013
	MOVW R30,R16
	SBIW R30,1
	MOVW R16,R30
	ST   X+,R30
	ST   X,R31
_0x2000012:
	LDD  R26,Y+4
	LDD  R27,Y+4+1
	LD   R30,X+
	LD   R31,X+
	ADIW R30,1
	ST   -X,R31
	ST   -X,R30
	SBIW R30,1
	LDD  R26,Y+6
	STD  Z+0,R26
_0x2000013:
	RJMP _0x2000014
_0x2000010:
	LDD  R30,Y+6
	ST   -Y,R30
	RCALL _putchar
_0x2000014:
	RCALL __LOADLOCR2
	ADIW R28,7
	RET
__print_G100:
	SBIW R28,6
	RCALL __SAVELOCR6
	LDI  R17,0
_0x2000015:
	LDD  R30,Y+18
	LDD  R31,Y+18+1
	ADIW R30,1
	STD  Y+18,R30
	STD  Y+18+1,R31
	SBIW R30,1
	LPM  R30,Z
	MOV  R18,R30
	CPI  R30,0
	BRNE PC+2
	RJMP _0x2000017
	MOV  R30,R17
	RCALL SUBOPT_0x0
	SBIW R30,0
	BRNE _0x200001B
	CPI  R18,37
	BRNE _0x200001C
	LDI  R17,LOW(1)
	RJMP _0x200001D
_0x200001C:
	RCALL SUBOPT_0xA
_0x200001D:
	RJMP _0x200001A
_0x200001B:
	CPI  R30,LOW(0x1)
	LDI  R26,HIGH(0x1)
	CPC  R31,R26
	BRNE _0x200001E
	CPI  R18,37
	BRNE _0x200001F
	RCALL SUBOPT_0xA
	RJMP _0x20000BC
_0x200001F:
	LDI  R17,LOW(2)
	LDI  R20,LOW(0)
	LDI  R16,LOW(0)
	CPI  R18,45
	BRNE _0x2000020
	LDI  R16,LOW(1)
	RJMP _0x200001A
_0x2000020:
	CPI  R18,43
	BRNE _0x2000021
	LDI  R20,LOW(43)
	RJMP _0x200001A
_0x2000021:
	CPI  R18,32
	BRNE _0x2000022
	LDI  R20,LOW(32)
	RJMP _0x200001A
_0x2000022:
	RJMP _0x2000023
_0x200001E:
	CPI  R30,LOW(0x2)
	LDI  R26,HIGH(0x2)
	CPC  R31,R26
	BRNE _0x2000024
_0x2000023:
	LDI  R21,LOW(0)
	LDI  R17,LOW(3)
	CPI  R18,48
	BRNE _0x2000025
	RCALL SUBOPT_0xB
	LDI  R30,LOW(128)
	LDI  R31,HIGH(128)
	RCALL SUBOPT_0xC
	RJMP _0x200001A
_0x2000025:
	RJMP _0x2000026
_0x2000024:
	CPI  R30,LOW(0x3)
	LDI  R26,HIGH(0x3)
	CPC  R31,R26
	BREQ PC+2
	RJMP _0x200001A
_0x2000026:
	CPI  R18,48
	BRLO _0x2000029
	CPI  R18,58
	BRLO _0x200002A
_0x2000029:
	RJMP _0x2000028
_0x200002A:
	MOV  R26,R21
	RCALL SUBOPT_0xD
	LDI  R30,LOW(10)
	LDI  R31,HIGH(10)
	MULS R30,R26
	MOVW R30,R0
	MOV  R21,R30
	MOV  R22,R21
	CLR  R23
	MOV  R26,R18
	RCALL SUBOPT_0xD
	LDI  R30,LOW(48)
	LDI  R31,HIGH(48)
	RCALL __SWAPW12
	SUB  R30,R26
	SBC  R31,R27
	MOVW R26,R22
	ADD  R30,R26
	MOV  R21,R30
	RJMP _0x200001A
_0x2000028:
	MOV  R30,R18
	RCALL SUBOPT_0x0
	CPI  R30,LOW(0x63)
	LDI  R26,HIGH(0x63)
	CPC  R31,R26
	BRNE _0x200002E
	RCALL SUBOPT_0xE
	RCALL SUBOPT_0xF
	RCALL SUBOPT_0xE
	LDD  R26,Z+4
	ST   -Y,R26
	RCALL SUBOPT_0x10
	RJMP _0x200002F
_0x200002E:
	CPI  R30,LOW(0x73)
	LDI  R26,HIGH(0x73)
	CPC  R31,R26
	BRNE _0x2000031
	RCALL SUBOPT_0x11
	RCALL SUBOPT_0x12
	RCALL _strlen
	MOV  R17,R30
	RJMP _0x2000032
_0x2000031:
	CPI  R30,LOW(0x70)
	LDI  R26,HIGH(0x70)
	CPC  R31,R26
	BRNE _0x2000034
	RCALL SUBOPT_0x11
	RCALL SUBOPT_0x12
	RCALL _strlenf
	MOV  R17,R30
	RCALL SUBOPT_0xB
	LDI  R30,LOW(8)
	LDI  R31,HIGH(8)
	RCALL SUBOPT_0xC
_0x2000032:
	RCALL SUBOPT_0xB
	LDI  R30,LOW(2)
	LDI  R31,HIGH(2)
	RCALL SUBOPT_0xC
	RCALL SUBOPT_0xB
	LDI  R30,LOW(65407)
	LDI  R31,HIGH(65407)
	RCALL SUBOPT_0x13
	LDI  R19,LOW(0)
	RJMP _0x2000035
_0x2000034:
	CPI  R30,LOW(0x64)
	LDI  R26,HIGH(0x64)
	CPC  R31,R26
	BREQ _0x2000038
	CPI  R30,LOW(0x69)
	LDI  R26,HIGH(0x69)
	CPC  R31,R26
	BRNE _0x2000039
_0x2000038:
	RCALL SUBOPT_0xB
	RCALL SUBOPT_0x14
	RCALL SUBOPT_0xC
	RJMP _0x200003A
_0x2000039:
	CPI  R30,LOW(0x75)
	LDI  R26,HIGH(0x75)
	CPC  R31,R26
	BRNE _0x200003B
_0x200003A:
	LDI  R30,LOW(_tbl10_G100*2)
	LDI  R31,HIGH(_tbl10_G100*2)
	RCALL SUBOPT_0x15
	LDI  R17,LOW(5)
	RJMP _0x200003C
_0x200003B:
	CPI  R30,LOW(0x58)
	LDI  R26,HIGH(0x58)
	CPC  R31,R26
	BRNE _0x200003E
	RCALL SUBOPT_0xB
	LDI  R30,LOW(8)
	LDI  R31,HIGH(8)
	RCALL SUBOPT_0xC
	RJMP _0x200003F
_0x200003E:
	CPI  R30,LOW(0x78)
	LDI  R26,HIGH(0x78)
	CPC  R31,R26
	BREQ PC+2
	RJMP _0x2000070
_0x200003F:
	LDI  R30,LOW(_tbl16_G100*2)
	LDI  R31,HIGH(_tbl16_G100*2)
	RCALL SUBOPT_0x15
	LDI  R17,LOW(4)
_0x200003C:
	RCALL SUBOPT_0xB
	RCALL SUBOPT_0x16
	BREQ _0x2000041
	RCALL SUBOPT_0x11
	RCALL SUBOPT_0x17
	LDD  R26,Y+11
	TST  R26
	BRPL _0x2000042
	LDD  R30,Y+10
	LDD  R31,Y+10+1
	RCALL __ANEGW1
	STD  Y+10,R30
	STD  Y+10+1,R31
	LDI  R20,LOW(45)
_0x2000042:
	CPI  R20,0
	BREQ _0x2000043
	SUBI R17,-LOW(1)
	RJMP _0x2000044
_0x2000043:
	RCALL SUBOPT_0xB
	RCALL SUBOPT_0x18
_0x2000044:
	RJMP _0x2000045
_0x2000041:
	RCALL SUBOPT_0x11
	RCALL SUBOPT_0x17
_0x2000045:
_0x2000035:
	RCALL SUBOPT_0x19
	BRNE _0x2000046
_0x2000047:
	CP   R17,R21
	BRSH _0x2000049
	RCALL SUBOPT_0xB
	RCALL SUBOPT_0x1A
	BREQ _0x200004A
	RCALL SUBOPT_0xB
	RCALL SUBOPT_0x16
	BREQ _0x200004B
	RCALL SUBOPT_0xB
	RCALL SUBOPT_0x18
	MOV  R18,R20
	SUBI R17,LOW(1)
	RJMP _0x200004C
_0x200004B:
	LDI  R18,LOW(48)
_0x200004C:
	RJMP _0x200004D
_0x200004A:
	LDI  R18,LOW(32)
_0x200004D:
	RCALL SUBOPT_0xA
	SUBI R21,LOW(1)
	RJMP _0x2000047
_0x2000049:
_0x2000046:
	MOV  R19,R17
	RCALL SUBOPT_0xB
	LDI  R30,LOW(2)
	LDI  R31,HIGH(2)
	RCALL SUBOPT_0x1B
	BREQ _0x200004E
_0x200004F:
	CPI  R19,0
	BREQ _0x2000051
	RCALL SUBOPT_0xB
	LDI  R30,LOW(8)
	LDI  R31,HIGH(8)
	RCALL SUBOPT_0x1B
	BREQ _0x2000052
	LDD  R30,Y+6
	LDD  R31,Y+6+1
	ADIW R30,1
	RCALL SUBOPT_0x15
	SBIW R30,1
	LPM  R30,Z
	RJMP _0x20000BD
_0x2000052:
	LDD  R26,Y+6
	LDD  R27,Y+6+1
	LD   R30,X+
	STD  Y+6,R26
	STD  Y+6+1,R27
_0x20000BD:
	ST   -Y,R30
	RCALL SUBOPT_0x10
	CPI  R21,0
	BREQ _0x2000054
	SUBI R21,LOW(1)
_0x2000054:
	SUBI R19,LOW(1)
	RJMP _0x200004F
_0x2000051:
	RJMP _0x2000055
_0x200004E:
_0x2000057:
	LDI  R18,LOW(48)
	LDD  R30,Y+6
	LDD  R31,Y+6+1
	RCALL __GETW1PF
	STD  Y+8,R30
	STD  Y+8+1,R31
	LDD  R30,Y+6
	LDD  R31,Y+6+1
	ADIW R30,2
	RCALL SUBOPT_0x15
_0x2000059:
	LDD  R30,Y+8
	LDD  R31,Y+8+1
	LDD  R26,Y+10
	LDD  R27,Y+10+1
	CP   R26,R30
	CPC  R27,R31
	BRLO _0x200005B
	SUBI R18,-LOW(1)
	LDD  R26,Y+8
	LDD  R27,Y+8+1
	LDD  R30,Y+10
	LDD  R31,Y+10+1
	SUB  R30,R26
	SBC  R31,R27
	STD  Y+10,R30
	STD  Y+10+1,R31
	RJMP _0x2000059
_0x200005B:
	CPI  R18,58
	BRLO _0x200005C
	RCALL SUBOPT_0xB
	LDI  R30,LOW(8)
	LDI  R31,HIGH(8)
	RCALL SUBOPT_0x1B
	BREQ _0x200005D
	MOV  R30,R18
	RCALL SUBOPT_0x0
	ADIW R30,7
	RJMP _0x20000BE
_0x200005D:
	MOV  R30,R18
	RCALL SUBOPT_0x0
	ADIW R30,39
_0x20000BE:
	MOV  R18,R30
_0x200005C:
	RCALL SUBOPT_0xB
	LDI  R30,LOW(16)
	LDI  R31,HIGH(16)
	RCALL SUBOPT_0x1B
	BRNE _0x2000060
	CPI  R18,49
	BRSH _0x2000062
	LDD  R26,Y+8
	LDD  R27,Y+8+1
	SBIW R26,1
	BRNE _0x2000061
_0x2000062:
	RJMP _0x20000BF
_0x2000061:
	CP   R21,R19
	BRLO _0x2000066
	RCALL SUBOPT_0x19
	BREQ _0x2000067
_0x2000066:
	RJMP _0x2000065
_0x2000067:
	LDI  R18,LOW(32)
	RCALL SUBOPT_0xB
	RCALL SUBOPT_0x1A
	BREQ _0x2000068
	LDI  R18,LOW(48)
_0x20000BF:
	MOV  R26,R16
	RCALL SUBOPT_0xD
	LDI  R30,LOW(16)
	LDI  R31,HIGH(16)
	RCALL SUBOPT_0xC
	RCALL SUBOPT_0xB
	RCALL SUBOPT_0x16
	BREQ _0x2000069
	RCALL SUBOPT_0xB
	RCALL SUBOPT_0x18
	ST   -Y,R20
	RCALL SUBOPT_0x10
	CPI  R21,0
	BREQ _0x200006A
	SUBI R21,LOW(1)
_0x200006A:
_0x2000069:
_0x2000068:
_0x2000060:
	RCALL SUBOPT_0xA
	CPI  R21,0
	BREQ _0x200006B
	SUBI R21,LOW(1)
_0x200006B:
_0x2000065:
	SUBI R19,LOW(1)
	LDD  R26,Y+8
	LDD  R27,Y+8+1
	SBIW R26,2
	BRLO _0x2000058
	RJMP _0x2000057
_0x2000058:
_0x2000055:
	RCALL SUBOPT_0x19
	BREQ _0x200006C
_0x200006D:
	CPI  R21,0
	BREQ _0x200006F
	SUBI R21,LOW(1)
	LDI  R30,LOW(32)
	ST   -Y,R30
	RCALL SUBOPT_0x10
	RJMP _0x200006D
_0x200006F:
_0x200006C:
_0x2000070:
_0x200002F:
_0x20000BC:
	LDI  R17,LOW(0)
_0x200001A:
	RJMP _0x2000015
_0x2000017:
	RCALL __LOADLOCR6
	ADIW R28,20
	RET
_printf:
	PUSH R15
	MOV  R15,R24
	SBIW R28,2
	RCALL __SAVELOCR2
	MOVW R26,R28
	RCALL __ADDW2R15
	MOVW R16,R26
	LDI  R30,0
	STD  Y+2,R30
	STD  Y+2+1,R30
	MOVW R26,R28
	ADIW R26,4
	RCALL __ADDW2R15
	RCALL __GETW1P
	RCALL SUBOPT_0x9
	ST   -Y,R17
	ST   -Y,R16
	MOVW R30,R28
	ADIW R30,6
	RCALL SUBOPT_0x9
	LDI  R30,LOW(0)
	LDI  R31,HIGH(0)
	RCALL SUBOPT_0x9
	RCALL __print_G100
	RCALL __LOADLOCR2
	ADIW R28,4
	POP  R15
	RET

	.CSEG

	.CSEG

	.CSEG
_strlen:
    ld   r26,y+
    ld   r27,y+
    clr  r30
    clr  r31
strlen0:
    ld   r22,x+
    tst  r22
    breq strlen1
    adiw r30,1
    rjmp strlen0
strlen1:
    ret
_strlenf:
    clr  r26
    clr  r27
    ld   r30,y+
    ld   r31,y+
strlenf0:
    lpm  r0,z+
    tst  r0
    breq strlenf1
    adiw r26,1
    rjmp strlenf0
strlenf1:
    movw r30,r26
    ret

	.DSEG
_d3:
	.BYTE 0x2
_p_S1030024:
	.BYTE 0x2

	.CSEG
;OPTIMIZER ADDED SUBROUTINE, CALLED 9 TIMES, CODE SIZE REDUCTION:14 WORDS
SUBOPT_0x0:
	LDI  R31,0
	RET

;OPTIMIZER ADDED SUBROUTINE, CALLED 4 TIMES, CODE SIZE REDUCTION:7 WORDS
SUBOPT_0x1:
	LDI  R26,0
	SBIC 0x10,2
	LDI  R26,1
	CPI  R26,LOW(0x1)
	RET

;OPTIMIZER ADDED SUBROUTINE, CALLED 8 TIMES, CODE SIZE REDUCTION:12 WORDS
SUBOPT_0x2:
	MOVW R30,R4
	ADIW R30,1
	MOVW R4,R30
	RET

;OPTIMIZER ADDED SUBROUTINE, CALLED 4 TIMES, CODE SIZE REDUCTION:4 WORDS
SUBOPT_0x3:
	LDI  R30,LOW(254)
	AND  R8,R30
	RJMP SUBOPT_0x2

;OPTIMIZER ADDED SUBROUTINE, CALLED 3 TIMES, CODE SIZE REDUCTION:2 WORDS
SUBOPT_0x4:
	RCALL __GTW12
	MOV  R0,R30
	MOVW R26,R4
	RET

;OPTIMIZER ADDED SUBROUTINE, CALLED 3 TIMES, CODE SIZE REDUCTION:4 WORDS
SUBOPT_0x5:
	LDS  R30,_d3
	LDS  R31,_d3+1
	RET

;OPTIMIZER ADDED SUBROUTINE, CALLED 3 TIMES, CODE SIZE REDUCTION:4 WORDS
SUBOPT_0x6:
	STS  _d3,R30
	STS  _d3+1,R31
	RET

;OPTIMIZER ADDED SUBROUTINE, CALLED 4 TIMES, CODE SIZE REDUCTION:7 WORDS
SUBOPT_0x7:
	__POINTW1FN _0x0,0
	ST   -Y,R31
	ST   -Y,R30
	RET

;OPTIMIZER ADDED SUBROUTINE, CALLED 3 TIMES, CODE SIZE REDUCTION:10 WORDS
SUBOPT_0x8:
	RCALL __CWD1
	RCALL __PUTPARD1
	LDI  R24,4
	RCALL _printf
	ADIW R28,6
	RJMP SUBOPT_0x7

;OPTIMIZER ADDED SUBROUTINE, CALLED 22 TIMES, CODE SIZE REDUCTION:19 WORDS
SUBOPT_0x9:
	ST   -Y,R31
	ST   -Y,R30
	RET

;OPTIMIZER ADDED SUBROUTINE, CALLED 4 TIMES, CODE SIZE REDUCTION:19 WORDS
SUBOPT_0xA:
	ST   -Y,R18
	LDD  R30,Y+15
	LDD  R31,Y+15+1
	RCALL SUBOPT_0x9
	MOVW R30,R28
	ADIW R30,15
	RCALL SUBOPT_0x9
	RJMP __put_G100

;OPTIMIZER ADDED SUBROUTINE, CALLED 18 TIMES, CODE SIZE REDUCTION:49 WORDS
SUBOPT_0xB:
	MOV  R26,R16
	LDI  R27,0
	RET

;OPTIMIZER ADDED SUBROUTINE, CALLED 6 TIMES, CODE SIZE REDUCTION:3 WORDS
SUBOPT_0xC:
	OR   R30,R26
	MOV  R16,R30
	RET

;OPTIMIZER ADDED SUBROUTINE, CALLED 3 TIMES, CODE SIZE REDUCTION:2 WORDS
SUBOPT_0xD:
	LDI  R27,0
	RET

;OPTIMIZER ADDED SUBROUTINE, CALLED 6 TIMES, CODE SIZE REDUCTION:3 WORDS
SUBOPT_0xE:
	LDD  R30,Y+16
	LDD  R31,Y+16+1
	RET

;OPTIMIZER ADDED SUBROUTINE, CALLED 5 TIMES, CODE SIZE REDUCTION:6 WORDS
SUBOPT_0xF:
	SBIW R30,4
	STD  Y+16,R30
	STD  Y+16+1,R31
	RET

;OPTIMIZER ADDED SUBROUTINE, CALLED 4 TIMES, CODE SIZE REDUCTION:16 WORDS
SUBOPT_0x10:
	LDD  R30,Y+15
	LDD  R31,Y+15+1
	RCALL SUBOPT_0x9
	MOVW R30,R28
	ADIW R30,15
	RCALL SUBOPT_0x9
	RJMP __put_G100

;OPTIMIZER ADDED SUBROUTINE, CALLED 4 TIMES, CODE SIZE REDUCTION:1 WORDS
SUBOPT_0x11:
	RCALL SUBOPT_0xE
	RJMP SUBOPT_0xF

;OPTIMIZER ADDED SUBROUTINE, CALLED 2 TIMES, CODE SIZE REDUCTION:6 WORDS
SUBOPT_0x12:
	LDD  R26,Y+16
	LDD  R27,Y+16+1
	ADIW R26,4
	RCALL __GETW1P
	STD  Y+6,R30
	STD  Y+6+1,R31
	RJMP SUBOPT_0x9

;OPTIMIZER ADDED SUBROUTINE, CALLED 4 TIMES, CODE SIZE REDUCTION:1 WORDS
SUBOPT_0x13:
	AND  R30,R26
	MOV  R16,R30
	RET

;OPTIMIZER ADDED SUBROUTINE, CALLED 4 TIMES, CODE SIZE REDUCTION:1 WORDS
SUBOPT_0x14:
	LDI  R30,LOW(4)
	LDI  R31,HIGH(4)
	RET

;OPTIMIZER ADDED SUBROUTINE, CALLED 4 TIMES, CODE SIZE REDUCTION:1 WORDS
SUBOPT_0x15:
	STD  Y+6,R30
	STD  Y+6+1,R31
	RET

;OPTIMIZER ADDED SUBROUTINE, CALLED 3 TIMES, CODE SIZE REDUCTION:4 WORDS
SUBOPT_0x16:
	RCALL SUBOPT_0x14
	AND  R30,R26
	AND  R31,R27
	SBIW R30,0
	RET

;OPTIMIZER ADDED SUBROUTINE, CALLED 2 TIMES, CODE SIZE REDUCTION:3 WORDS
SUBOPT_0x17:
	LDD  R26,Y+16
	LDD  R27,Y+16+1
	ADIW R26,4
	RCALL __GETW1P
	STD  Y+10,R30
	STD  Y+10+1,R31
	RET

;OPTIMIZER ADDED SUBROUTINE, CALLED 3 TIMES, CODE SIZE REDUCTION:2 WORDS
SUBOPT_0x18:
	LDI  R30,LOW(65531)
	LDI  R31,HIGH(65531)
	RJMP SUBOPT_0x13

;OPTIMIZER ADDED SUBROUTINE, CALLED 3 TIMES, CODE SIZE REDUCTION:2 WORDS
SUBOPT_0x19:
	MOV  R30,R16
	RCALL SUBOPT_0x0
	ANDI R30,LOW(0x1)
	RET

;OPTIMIZER ADDED SUBROUTINE, CALLED 2 TIMES, CODE SIZE REDUCTION:2 WORDS
SUBOPT_0x1A:
	LDI  R30,LOW(128)
	LDI  R31,HIGH(128)
	AND  R30,R26
	AND  R31,R27
	SBIW R30,0
	RET

;OPTIMIZER ADDED SUBROUTINE, CALLED 4 TIMES, CODE SIZE REDUCTION:4 WORDS
SUBOPT_0x1B:
	AND  R30,R26
	AND  R31,R27
	SBIW R30,0
	RET


	.CSEG
_delay_ms:
	ld   r30,y+
	ld   r31,y+
	adiw r30,0
	breq __delay_ms1
__delay_ms0:
	__DELAY_USW 0x7D0
	wdr
	sbiw r30,1
	brne __delay_ms0
__delay_ms1:
	ret

__ADDW2R15:
	CLR  R0
	ADD  R26,R15
	ADC  R27,R0
	RET

__ANEGW1:
	NEG  R31
	NEG  R30
	SBCI R31,0
	RET

__CWD1:
	MOV  R22,R31
	ADD  R22,R22
	SBC  R22,R22
	MOV  R23,R22
	RET

__EQB12:
	CP   R30,R26
	LDI  R30,1
	BREQ __EQB12T
	CLR  R30
__EQB12T:
	RET

__EQW12:
	CP   R30,R26
	CPC  R31,R27
	LDI  R30,1
	BREQ __EQW12T
	CLR  R30
__EQW12T:
	RET

__LEW12:
	CP   R30,R26
	CPC  R31,R27
	LDI  R30,1
	BRGE __LEW12T
	CLR  R30
__LEW12T:
	RET

__GTW12:
	CP   R30,R26
	CPC  R31,R27
	LDI  R30,1
	BRLT __GTW12T
	CLR  R30
__GTW12T:
	RET

__GETW1P:
	LD   R30,X+
	LD   R31,X
	SBIW R26,1
	RET

__GETW1PF:
	LPM  R0,Z+
	LPM  R31,Z
	MOV  R30,R0
	RET

__PUTPARD1:
	ST   -Y,R23
	ST   -Y,R22
	ST   -Y,R31
	ST   -Y,R30
	RET

__SWAPW12:
	MOV  R1,R27
	MOV  R27,R31
	MOV  R31,R1

__SWAPB12:
	MOV  R1,R26
	MOV  R26,R30
	MOV  R30,R1
	RET

__SAVELOCR6:
	ST   -Y,R21
__SAVELOCR5:
	ST   -Y,R20
__SAVELOCR4:
	ST   -Y,R19
__SAVELOCR3:
	ST   -Y,R18
__SAVELOCR2:
	ST   -Y,R17
	ST   -Y,R16
	RET

__LOADLOCR6:
	LDD  R21,Y+5
__LOADLOCR5:
	LDD  R20,Y+4
__LOADLOCR4:
	LDD  R19,Y+3
__LOADLOCR3:
	LDD  R18,Y+2
__LOADLOCR2:
	LDD  R17,Y+1
	LD   R16,Y
	RET

;END OF CODE MARKER
__END_OF_CODE:
