
;CodeVisionAVR C Compiler V2.03.4 Standard
;(C) Copyright 1998-2008 Pavel Haiduc, HP InfoTech s.r.l.
;http://www.hpinfotech.com

;Chip type              : ATmega8L
;Program type           : Application
;Clock frequency        : 8,000000 MHz
;Memory model           : Small
;Optimize for           : Size
;(s)printf features     : int, width
;(s)scanf features      : int, width
;External RAM size      : 0
;Data Stack size        : 256 byte(s)
;Heap size              : 0 byte(s)
;Promote char to int    : Yes
;char is unsigned       : Yes
;global const stored in FLASH  : No
;8 bit enums            : Yes
;Enhanced core instructions    : On
;Smart register allocation : On
;Automatic register allocation : On

	#pragma AVRPART ADMIN PART_NAME ATmega8L
	#pragma AVRPART MEMORY PROG_FLASH 8192
	#pragma AVRPART MEMORY EEPROM 512
	#pragma AVRPART MEMORY INT_SRAM SIZE 1024
	#pragma AVRPART MEMORY INT_SRAM START_ADDR 0x60

	.LISTMAC
	.EQU UDRE=0x5
	.EQU RXC=0x7
	.EQU USR=0xB
	.EQU UDR=0xC
	.EQU SPSR=0xE
	.EQU SPDR=0xF
	.EQU EERE=0x0
	.EQU EEWE=0x1
	.EQU EEMWE=0x2
	.EQU EECR=0x1C
	.EQU EEDR=0x1D
	.EQU EEARL=0x1E
	.EQU EEARH=0x1F
	.EQU WDTCR=0x21
	.EQU MCUCR=0x35
	.EQU GICR=0x3B
	.EQU SPL=0x3D
	.EQU SPH=0x3E
	.EQU SREG=0x3F

	.DEF R0X0=R0
	.DEF R0X1=R1
	.DEF R0X2=R2
	.DEF R0X3=R3
	.DEF R0X4=R4
	.DEF R0X5=R5
	.DEF R0X6=R6
	.DEF R0X7=R7
	.DEF R0X8=R8
	.DEF R0X9=R9
	.DEF R0XA=R10
	.DEF R0XB=R11
	.DEF R0XC=R12
	.DEF R0XD=R13
	.DEF R0XE=R14
	.DEF R0XF=R15
	.DEF R0X10=R16
	.DEF R0X11=R17
	.DEF R0X12=R18
	.DEF R0X13=R19
	.DEF R0X14=R20
	.DEF R0X15=R21
	.DEF R0X16=R22
	.DEF R0X17=R23
	.DEF R0X18=R24
	.DEF R0X19=R25
	.DEF R0X1A=R26
	.DEF R0X1B=R27
	.DEF R0X1C=R28
	.DEF R0X1D=R29
	.DEF R0X1E=R30
	.DEF R0X1F=R31

	.MACRO __CPD1N
	CPI  R30,LOW(@0)
	LDI  R26,HIGH(@0)
	CPC  R31,R26
	LDI  R26,BYTE3(@0)
	CPC  R22,R26
	LDI  R26,BYTE4(@0)
	CPC  R23,R26
	.ENDM

	.MACRO __CPD2N
	CPI  R26,LOW(@0)
	LDI  R30,HIGH(@0)
	CPC  R27,R30
	LDI  R30,BYTE3(@0)
	CPC  R24,R30
	LDI  R30,BYTE4(@0)
	CPC  R25,R30
	.ENDM

	.MACRO __CPWRR
	CP   R@0,R@2
	CPC  R@1,R@3
	.ENDM

	.MACRO __CPWRN
	CPI  R@0,LOW(@2)
	LDI  R30,HIGH(@2)
	CPC  R@1,R30
	.ENDM

	.MACRO __ADDB1MN
	SUBI R30,LOW(-@0-(@1))
	.ENDM

	.MACRO __ADDB2MN
	SUBI R26,LOW(-@0-(@1))
	.ENDM

	.MACRO __ADDW1MN
	SUBI R30,LOW(-@0-(@1))
	SBCI R31,HIGH(-@0-(@1))
	.ENDM

	.MACRO __ADDW2MN
	SUBI R26,LOW(-@0-(@1))
	SBCI R27,HIGH(-@0-(@1))
	.ENDM

	.MACRO __ADDW1FN
	SUBI R30,LOW(-2*@0-(@1))
	SBCI R31,HIGH(-2*@0-(@1))
	.ENDM

	.MACRO __ADDD1FN
	SUBI R30,LOW(-2*@0-(@1))
	SBCI R31,HIGH(-2*@0-(@1))
	SBCI R22,BYTE3(-2*@0-(@1))
	.ENDM

	.MACRO __ADDD1N
	SUBI R30,LOW(-@0)
	SBCI R31,HIGH(-@0)
	SBCI R22,BYTE3(-@0)
	SBCI R23,BYTE4(-@0)
	.ENDM

	.MACRO __ADDD2N
	SUBI R26,LOW(-@0)
	SBCI R27,HIGH(-@0)
	SBCI R24,BYTE3(-@0)
	SBCI R25,BYTE4(-@0)
	.ENDM

	.MACRO __SUBD1N
	SUBI R30,LOW(@0)
	SBCI R31,HIGH(@0)
	SBCI R22,BYTE3(@0)
	SBCI R23,BYTE4(@0)
	.ENDM

	.MACRO __SUBD2N
	SUBI R26,LOW(@0)
	SBCI R27,HIGH(@0)
	SBCI R24,BYTE3(@0)
	SBCI R25,BYTE4(@0)
	.ENDM

	.MACRO __ANDBMNN
	LDS  R30,@0+@1
	ANDI R30,LOW(@2)
	STS  @0+@1,R30
	.ENDM

	.MACRO __ANDWMNN
	LDS  R30,@0+@1
	ANDI R30,LOW(@2)
	STS  @0+@1,R30
	LDS  R30,@0+@1+1
	ANDI R30,HIGH(@2)
	STS  @0+@1+1,R30
	.ENDM

	.MACRO __ANDD1N
	ANDI R30,LOW(@0)
	ANDI R31,HIGH(@0)
	ANDI R22,BYTE3(@0)
	ANDI R23,BYTE4(@0)
	.ENDM

	.MACRO __ANDD2N
	ANDI R26,LOW(@0)
	ANDI R27,HIGH(@0)
	ANDI R24,BYTE3(@0)
	ANDI R25,BYTE4(@0)
	.ENDM

	.MACRO __ORBMNN
	LDS  R30,@0+@1
	ORI  R30,LOW(@2)
	STS  @0+@1,R30
	.ENDM

	.MACRO __ORWMNN
	LDS  R30,@0+@1
	ORI  R30,LOW(@2)
	STS  @0+@1,R30
	LDS  R30,@0+@1+1
	ORI  R30,HIGH(@2)
	STS  @0+@1+1,R30
	.ENDM

	.MACRO __ORD1N
	ORI  R30,LOW(@0)
	ORI  R31,HIGH(@0)
	ORI  R22,BYTE3(@0)
	ORI  R23,BYTE4(@0)
	.ENDM

	.MACRO __ORD2N
	ORI  R26,LOW(@0)
	ORI  R27,HIGH(@0)
	ORI  R24,BYTE3(@0)
	ORI  R25,BYTE4(@0)
	.ENDM

	.MACRO __DELAY_USB
	LDI  R24,LOW(@0)
__DELAY_USB_LOOP:
	DEC  R24
	BRNE __DELAY_USB_LOOP
	.ENDM

	.MACRO __DELAY_USW
	LDI  R24,LOW(@0)
	LDI  R25,HIGH(@0)
__DELAY_USW_LOOP:
	SBIW R24,1
	BRNE __DELAY_USW_LOOP
	.ENDM

	.MACRO __CLRD1S
	LDI  R30,0
	STD  Y+@0,R30
	STD  Y+@0+1,R30
	STD  Y+@0+2,R30
	STD  Y+@0+3,R30
	.ENDM

	.MACRO __GETD1S
	LDD  R30,Y+@0
	LDD  R31,Y+@0+1
	LDD  R22,Y+@0+2
	LDD  R23,Y+@0+3
	.ENDM

	.MACRO __PUTD1S
	STD  Y+@0,R30
	STD  Y+@0+1,R31
	STD  Y+@0+2,R22
	STD  Y+@0+3,R23
	.ENDM

	.MACRO __PUTD2S
	STD  Y+@0,R26
	STD  Y+@0+1,R27
	STD  Y+@0+2,R24
	STD  Y+@0+3,R25
	.ENDM

	.MACRO __POINTB1MN
	LDI  R30,LOW(@0+@1)
	.ENDM

	.MACRO __POINTW1MN
	LDI  R30,LOW(@0+@1)
	LDI  R31,HIGH(@0+@1)
	.ENDM

	.MACRO __POINTD1M
	LDI  R30,LOW(@0)
	LDI  R31,HIGH(@0)
	LDI  R22,BYTE3(@0)
	LDI  R23,BYTE4(@0)
	.ENDM

	.MACRO __POINTW1FN
	LDI  R30,LOW(2*@0+@1)
	LDI  R31,HIGH(2*@0+@1)
	.ENDM

	.MACRO __POINTD1FN
	LDI  R30,LOW(2*@0+@1)
	LDI  R31,HIGH(2*@0+@1)
	LDI  R22,BYTE3(2*@0+@1)
	LDI  R23,BYTE4(2*@0+@1)
	.ENDM

	.MACRO __POINTB2MN
	LDI  R26,LOW(@0+@1)
	.ENDM

	.MACRO __POINTW2MN
	LDI  R26,LOW(@0+@1)
	LDI  R27,HIGH(@0+@1)
	.ENDM

	.MACRO __POINTBRM
	LDI  R@0,LOW(@1)
	.ENDM

	.MACRO __POINTWRM
	LDI  R@0,LOW(@2)
	LDI  R@1,HIGH(@2)
	.ENDM

	.MACRO __POINTBRMN
	LDI  R@0,LOW(@1+@2)
	.ENDM

	.MACRO __POINTWRMN
	LDI  R@0,LOW(@2+@3)
	LDI  R@1,HIGH(@2+@3)
	.ENDM

	.MACRO __POINTWRFN
	LDI  R@0,LOW(@2*2+@3)
	LDI  R@1,HIGH(@2*2+@3)
	.ENDM

	.MACRO __GETD1N
	LDI  R30,LOW(@0)
	LDI  R31,HIGH(@0)
	LDI  R22,BYTE3(@0)
	LDI  R23,BYTE4(@0)
	.ENDM

	.MACRO __GETD2N
	LDI  R26,LOW(@0)
	LDI  R27,HIGH(@0)
	LDI  R24,BYTE3(@0)
	LDI  R25,BYTE4(@0)
	.ENDM

	.MACRO __GETD2S
	LDD  R26,Y+@0
	LDD  R27,Y+@0+1
	LDD  R24,Y+@0+2
	LDD  R25,Y+@0+3
	.ENDM

	.MACRO __GETB1MN
	LDS  R30,@0+@1
	.ENDM

	.MACRO __GETB1HMN
	LDS  R31,@0+@1
	.ENDM

	.MACRO __GETW1MN
	LDS  R30,@0+@1
	LDS  R31,@0+@1+1
	.ENDM

	.MACRO __GETD1MN
	LDS  R30,@0+@1
	LDS  R31,@0+@1+1
	LDS  R22,@0+@1+2
	LDS  R23,@0+@1+3
	.ENDM

	.MACRO __GETBRMN
	LDS  R@0,@1+@2
	.ENDM

	.MACRO __GETWRMN
	LDS  R@0,@2+@3
	LDS  R@1,@2+@3+1
	.ENDM

	.MACRO __GETWRZ
	LDD  R@0,Z+@2
	LDD  R@1,Z+@2+1
	.ENDM

	.MACRO __GETD2Z
	LDD  R26,Z+@0
	LDD  R27,Z+@0+1
	LDD  R24,Z+@0+2
	LDD  R25,Z+@0+3
	.ENDM

	.MACRO __GETB2MN
	LDS  R26,@0+@1
	.ENDM

	.MACRO __GETW2MN
	LDS  R26,@0+@1
	LDS  R27,@0+@1+1
	.ENDM

	.MACRO __GETD2MN
	LDS  R26,@0+@1
	LDS  R27,@0+@1+1
	LDS  R24,@0+@1+2
	LDS  R25,@0+@1+3
	.ENDM

	.MACRO __PUTB1MN
	STS  @0+@1,R30
	.ENDM

	.MACRO __PUTW1MN
	STS  @0+@1,R30
	STS  @0+@1+1,R31
	.ENDM

	.MACRO __PUTD1MN
	STS  @0+@1,R30
	STS  @0+@1+1,R31
	STS  @0+@1+2,R22
	STS  @0+@1+3,R23
	.ENDM

	.MACRO __PUTB1EN
	LDI  R26,LOW(@0+@1)
	LDI  R27,HIGH(@0+@1)
	RCALL __EEPROMWRB
	.ENDM

	.MACRO __PUTW1EN
	LDI  R26,LOW(@0+@1)
	LDI  R27,HIGH(@0+@1)
	RCALL __EEPROMWRW
	.ENDM

	.MACRO __PUTD1EN
	LDI  R26,LOW(@0+@1)
	LDI  R27,HIGH(@0+@1)
	RCALL __EEPROMWRD
	.ENDM

	.MACRO __PUTBR0MN
	STS  @0+@1,R0
	.ENDM

	.MACRO __PUTDZ2
	STD  Z+@0,R26
	STD  Z+@0+1,R27
	STD  Z+@0+2,R24
	STD  Z+@0+3,R25
	.ENDM

	.MACRO __PUTBMRN
	STS  @0+@1,R@2
	.ENDM

	.MACRO __PUTWMRN
	STS  @0+@1,R@2
	STS  @0+@1+1,R@3
	.ENDM

	.MACRO __PUTBZR
	STD  Z+@1,R@0
	.ENDM

	.MACRO __PUTWZR
	STD  Z+@2,R@0
	STD  Z+@2+1,R@1
	.ENDM

	.MACRO __GETW1R
	MOV  R30,R@0
	MOV  R31,R@1
	.ENDM

	.MACRO __GETW2R
	MOV  R26,R@0
	MOV  R27,R@1
	.ENDM

	.MACRO __GETWRN
	LDI  R@0,LOW(@2)
	LDI  R@1,HIGH(@2)
	.ENDM

	.MACRO __PUTW1R
	MOV  R@0,R30
	MOV  R@1,R31
	.ENDM

	.MACRO __PUTW2R
	MOV  R@0,R26
	MOV  R@1,R27
	.ENDM

	.MACRO __ADDWRN
	SUBI R@0,LOW(-@2)
	SBCI R@1,HIGH(-@2)
	.ENDM

	.MACRO __ADDWRR
	ADD  R@0,R@2
	ADC  R@1,R@3
	.ENDM

	.MACRO __SUBWRN
	SUBI R@0,LOW(@2)
	SBCI R@1,HIGH(@2)
	.ENDM

	.MACRO __SUBWRR
	SUB  R@0,R@2
	SBC  R@1,R@3
	.ENDM

	.MACRO __ANDWRN
	ANDI R@0,LOW(@2)
	ANDI R@1,HIGH(@2)
	.ENDM

	.MACRO __ANDWRR
	AND  R@0,R@2
	AND  R@1,R@3
	.ENDM

	.MACRO __ORWRN
	ORI  R@0,LOW(@2)
	ORI  R@1,HIGH(@2)
	.ENDM

	.MACRO __ORWRR
	OR   R@0,R@2
	OR   R@1,R@3
	.ENDM

	.MACRO __EORWRR
	EOR  R@0,R@2
	EOR  R@1,R@3
	.ENDM

	.MACRO __GETWRS
	LDD  R@0,Y+@2
	LDD  R@1,Y+@2+1
	.ENDM

	.MACRO __PUTWSR
	STD  Y+@2,R@0
	STD  Y+@2+1,R@1
	.ENDM

	.MACRO __MOVEWRR
	MOV  R@0,R@2
	MOV  R@1,R@3
	.ENDM

	.MACRO __INWR
	IN   R@0,@2
	IN   R@1,@2+1
	.ENDM

	.MACRO __OUTWR
	OUT  @2+1,R@1
	OUT  @2,R@0
	.ENDM

	.MACRO __CALL1MN
	LDS  R30,@0+@1
	LDS  R31,@0+@1+1
	ICALL
	.ENDM

	.MACRO __CALL1FN
	LDI  R30,LOW(2*@0+@1)
	LDI  R31,HIGH(2*@0+@1)
	RCALL __GETW1PF
	ICALL
	.ENDM

	.MACRO __CALL2EN
	LDI  R26,LOW(@0+@1)
	LDI  R27,HIGH(@0+@1)
	RCALL __EEPROMRDW
	ICALL
	.ENDM

	.MACRO __GETW1STACK
	IN   R26,SPL
	IN   R27,SPH
	ADIW R26,@0+1
	LD   R30,X+
	LD   R31,X
	.ENDM

	.MACRO __NBST
	BST  R@0,@1
	IN   R30,SREG
	LDI  R31,0x40
	EOR  R30,R31
	OUT  SREG,R30
	.ENDM


	.MACRO __PUTB1SN
	LDD  R26,Y+@0
	LDD  R27,Y+@0+1
	SUBI R26,LOW(-@1)
	SBCI R27,HIGH(-@1)
	ST   X,R30
	.ENDM

	.MACRO __PUTW1SN
	LDD  R26,Y+@0
	LDD  R27,Y+@0+1
	SUBI R26,LOW(-@1)
	SBCI R27,HIGH(-@1)
	ST   X+,R30
	ST   X,R31
	.ENDM

	.MACRO __PUTD1SN
	LDD  R26,Y+@0
	LDD  R27,Y+@0+1
	SUBI R26,LOW(-@1)
	SBCI R27,HIGH(-@1)
	RCALL __PUTDP1
	.ENDM

	.MACRO __PUTB1SNS
	LDD  R26,Y+@0
	LDD  R27,Y+@0+1
	ADIW R26,@1
	ST   X,R30
	.ENDM

	.MACRO __PUTW1SNS
	LDD  R26,Y+@0
	LDD  R27,Y+@0+1
	ADIW R26,@1
	ST   X+,R30
	ST   X,R31
	.ENDM

	.MACRO __PUTD1SNS
	LDD  R26,Y+@0
	LDD  R27,Y+@0+1
	ADIW R26,@1
	RCALL __PUTDP1
	.ENDM

	.MACRO __PUTB1PMN
	LDS  R26,@0
	LDS  R27,@0+1
	SUBI R26,LOW(-@1)
	SBCI R27,HIGH(-@1)
	ST   X,R30
	.ENDM

	.MACRO __PUTW1PMN
	LDS  R26,@0
	LDS  R27,@0+1
	SUBI R26,LOW(-@1)
	SBCI R27,HIGH(-@1)
	ST   X+,R30
	ST   X,R31
	.ENDM

	.MACRO __PUTD1PMN
	LDS  R26,@0
	LDS  R27,@0+1
	SUBI R26,LOW(-@1)
	SBCI R27,HIGH(-@1)
	RCALL __PUTDP1
	.ENDM

	.MACRO __PUTB1PMNS
	LDS  R26,@0
	LDS  R27,@0+1
	ADIW R26,@1
	ST   X,R30
	.ENDM

	.MACRO __PUTW1PMNS
	LDS  R26,@0
	LDS  R27,@0+1
	ADIW R26,@1
	ST   X+,R30
	ST   X,R31
	.ENDM

	.MACRO __PUTD1PMNS
	LDS  R26,@0
	LDS  R27,@0+1
	ADIW R26,@1
	RCALL __PUTDP1
	.ENDM

	.MACRO __PUTB1RN
	MOVW R26,R@0
	SUBI R26,LOW(-@1)
	SBCI R27,HIGH(-@1)
	ST   X,R30
	.ENDM

	.MACRO __PUTW1RN
	MOVW R26,R@0
	SUBI R26,LOW(-@1)
	SBCI R27,HIGH(-@1)
	ST   X+,R30
	ST   X,R31
	.ENDM

	.MACRO __PUTD1RN
	MOVW R26,R@0
	SUBI R26,LOW(-@1)
	SBCI R27,HIGH(-@1)
	RCALL __PUTDP1
	.ENDM

	.MACRO __PUTB1RNS
	MOVW R26,R@0
	ADIW R26,@1
	ST   X,R30
	.ENDM

	.MACRO __PUTW1RNS
	MOVW R26,R@0
	ADIW R26,@1
	ST   X+,R30
	ST   X,R31
	.ENDM

	.MACRO __PUTD1RNS
	MOVW R26,R@0
	ADIW R26,@1
	RCALL __PUTDP1
	.ENDM

	.MACRO __PUTB1RON
	MOV  R26,R@0
	MOV  R27,R@1
	SUBI R26,LOW(-@2)
	SBCI R27,HIGH(-@2)
	ST   X,R30
	.ENDM

	.MACRO __PUTW1RON
	MOV  R26,R@0
	MOV  R27,R@1
	SUBI R26,LOW(-@2)
	SBCI R27,HIGH(-@2)
	ST   X+,R30
	ST   X,R31
	.ENDM

	.MACRO __PUTD1RON
	MOV  R26,R@0
	MOV  R27,R@1
	SUBI R26,LOW(-@2)
	SBCI R27,HIGH(-@2)
	RCALL __PUTDP1
	.ENDM

	.MACRO __PUTB1RONS
	MOV  R26,R@0
	MOV  R27,R@1
	ADIW R26,@2
	ST   X,R30
	.ENDM

	.MACRO __PUTW1RONS
	MOV  R26,R@0
	MOV  R27,R@1
	ADIW R26,@2
	ST   X+,R30
	ST   X,R31
	.ENDM

	.MACRO __PUTD1RONS
	MOV  R26,R@0
	MOV  R27,R@1
	ADIW R26,@2
	RCALL __PUTDP1
	.ENDM


	.MACRO __GETB1SX
	MOVW R30,R28
	SUBI R30,LOW(-@0)
	SBCI R31,HIGH(-@0)
	LD   R30,Z
	.ENDM

	.MACRO __GETB1HSX
	MOVW R30,R28
	SUBI R30,LOW(-@0)
	SBCI R31,HIGH(-@0)
	LD   R31,Z
	.ENDM

	.MACRO __GETW1SX
	MOVW R30,R28
	SUBI R30,LOW(-@0)
	SBCI R31,HIGH(-@0)
	LD   R0,Z+
	LD   R31,Z
	MOV  R30,R0
	.ENDM

	.MACRO __GETD1SX
	MOVW R30,R28
	SUBI R30,LOW(-@0)
	SBCI R31,HIGH(-@0)
	LD   R0,Z+
	LD   R1,Z+
	LD   R22,Z+
	LD   R23,Z
	MOVW R30,R0
	.ENDM

	.MACRO __GETB2SX
	MOVW R26,R28
	SUBI R26,LOW(-@0)
	SBCI R27,HIGH(-@0)
	LD   R26,X
	.ENDM

	.MACRO __GETW2SX
	MOVW R26,R28
	SUBI R26,LOW(-@0)
	SBCI R27,HIGH(-@0)
	LD   R0,X+
	LD   R27,X
	MOV  R26,R0
	.ENDM

	.MACRO __GETD2SX
	MOVW R26,R28
	SUBI R26,LOW(-@0)
	SBCI R27,HIGH(-@0)
	LD   R0,X+
	LD   R1,X+
	LD   R24,X+
	LD   R25,X
	MOVW R26,R0
	.ENDM

	.MACRO __GETBRSX
	MOVW R30,R28
	SUBI R30,LOW(-@1)
	SBCI R31,HIGH(-@1)
	LD   R@0,Z
	.ENDM

	.MACRO __GETWRSX
	MOVW R30,R28
	SUBI R30,LOW(-@2)
	SBCI R31,HIGH(-@2)
	LD   R@0,Z+
	LD   R@1,Z
	.ENDM

	.MACRO __LSLW8SX
	MOVW R30,R28
	SUBI R30,LOW(-@0)
	SBCI R31,HIGH(-@0)
	LD   R31,Z
	CLR  R30
	.ENDM

	.MACRO __PUTB1SX
	MOVW R26,R28
	SUBI R26,LOW(-@0)
	SBCI R27,HIGH(-@0)
	ST   X,R30
	.ENDM

	.MACRO __PUTW1SX
	MOVW R26,R28
	SUBI R26,LOW(-@0)
	SBCI R27,HIGH(-@0)
	ST   X+,R30
	ST   X,R31
	.ENDM

	.MACRO __PUTD1SX
	MOVW R26,R28
	SUBI R26,LOW(-@0)
	SBCI R27,HIGH(-@0)
	ST   X+,R30
	ST   X+,R31
	ST   X+,R22
	ST   X,R23
	.ENDM

	.MACRO __CLRW1SX
	MOVW R30,R28
	SUBI R30,LOW(-@0)
	SBCI R31,HIGH(-@0)
	CLR  R0
	ST   Z+,R0
	ST   Z,R0
	.ENDM

	.MACRO __CLRD1SX
	MOVW R30,R28
	SUBI R30,LOW(-@0)
	SBCI R31,HIGH(-@0)
	CLR  R0
	ST   Z+,R0
	ST   Z+,R0
	ST   Z+,R0
	ST   Z,R0
	.ENDM

	.MACRO __PUTB2SX
	MOVW R30,R28
	SUBI R30,LOW(-@0)
	SBCI R31,HIGH(-@0)
	ST   Z,R26
	.ENDM

	.MACRO __PUTW2SX
	MOVW R30,R28
	SUBI R30,LOW(-@0)
	SBCI R31,HIGH(-@0)
	ST   Z+,R26
	ST   Z,R27
	.ENDM

	.MACRO __PUTD2SX
	MOVW R30,R28
	SUBI R30,LOW(-@0)
	SBCI R31,HIGH(-@0)
	ST   Z+,R26
	ST   Z+,R27
	ST   Z+,R24
	ST   Z,R25
	.ENDM

	.MACRO __PUTBSRX
	MOVW R30,R28
	SUBI R30,LOW(-@0)
	SBCI R31,HIGH(-@0)
	ST   Z,R@1
	.ENDM

	.MACRO __PUTWSRX
	MOVW R30,R28
	SUBI R30,LOW(-@2)
	SBCI R31,HIGH(-@2)
	ST   Z+,R@0
	ST   Z,R@1
	.ENDM

	.MACRO __PUTB1SNX
	MOVW R26,R28
	SUBI R26,LOW(-@0)
	SBCI R27,HIGH(-@0)
	LD   R0,X+
	LD   R27,X
	MOV  R26,R0
	SUBI R26,LOW(-@1)
	SBCI R27,HIGH(-@1)
	ST   X,R30
	.ENDM

	.MACRO __PUTW1SNX
	MOVW R26,R28
	SUBI R26,LOW(-@0)
	SBCI R27,HIGH(-@0)
	LD   R0,X+
	LD   R27,X
	MOV  R26,R0
	SUBI R26,LOW(-@1)
	SBCI R27,HIGH(-@1)
	ST   X+,R30
	ST   X,R31
	.ENDM

	.MACRO __PUTD1SNX
	MOVW R26,R28
	SUBI R26,LOW(-@0)
	SBCI R27,HIGH(-@0)
	LD   R0,X+
	LD   R27,X
	MOV  R26,R0
	SUBI R26,LOW(-@1)
	SBCI R27,HIGH(-@1)
	ST   X+,R30
	ST   X+,R31
	ST   X+,R22
	ST   X,R23
	.ENDM

	.MACRO __MULBRR
	MULS R@0,R@1
	MOVW R30,R0
	.ENDM

	.MACRO __MULBRRU
	MUL  R@0,R@1
	MOVW R30,R0
	.ENDM

	.MACRO __MULBRR0
	MULS R@0,R@1
	.ENDM

	.MACRO __MULBRRU0
	MUL  R@0,R@1
	.ENDM

	.MACRO __MULBNWRU
	LDI  R26,@2
	MUL  R26,R@0
	MOVW R30,R0
	MUL  R26,R@1
	ADD  R31,R0
	.ENDM

;NAME DEFINITIONS FOR GLOBAL VARIABLES ALLOCATED TO REGISTERS
	.DEF _adc1=R5
	.DEF _c=R4
	.DEF _Timer_2=R7
	.DEF _Timer_1=R8

	.CSEG
	.ORG 0x00

;INTERRUPT VECTORS
	RJMP __RESET
	RJMP 0x00
	RJMP 0x00
	RJMP 0x00
	RJMP 0x00
	RJMP 0x00
	RJMP 0x00
	RJMP 0x00
	RJMP 0x00
	RJMP _timer0_ovf_isr
	RJMP 0x00
	RJMP 0x00
	RJMP 0x00
	RJMP 0x00
	RJMP 0x00
	RJMP 0x00
	RJMP 0x00
	RJMP 0x00
	RJMP 0x00

_tbl10_G101:
	.DB  0x10,0x27,0xE8,0x3,0x64,0x0,0xA,0x0
	.DB  0x1,0x0
_tbl16_G101:
	.DB  0x0,0x10,0x0,0x1,0x10,0x0,0x1,0x0

;REGISTER BIT VARIABLES INITIALIZATION
__REG_BIT_VARS:
	.DW  0x0001

_0x0:
	.DB  0x25,0x64,0xA,0x0,0x25,0x64,0xA,0xD
	.DB  0x0
_0x200005F:
	.DB  0x1
_0x2000000:
	.DB  0x2D,0x4E,0x41,0x4E,0x0

__GLOBAL_INI_TBL:
	.DW  0x02
	.DW  0x02
	.DW  __REG_BIT_VARS*2

	.DW  0x01
	.DW  __seed_G100
	.DW  _0x200005F*2

_0xFFFFFFFF:
	.DW  0

__RESET:
	CLI
	CLR  R30
	OUT  EECR,R30

;INTERRUPT VECTORS ARE PLACED
;AT THE START OF FLASH
	LDI  R31,1
	OUT  GICR,R31
	OUT  GICR,R30
	OUT  MCUCR,R30

;DISABLE WATCHDOG
	LDI  R31,0x18
	OUT  WDTCR,R31
	OUT  WDTCR,R30

;CLEAR R2-R14
	LDI  R24,(14-2)+1
	LDI  R26,2
	CLR  R27
__CLEAR_REG:
	ST   X+,R30
	DEC  R24
	BRNE __CLEAR_REG

;CLEAR SRAM
	LDI  R24,LOW(0x400)
	LDI  R25,HIGH(0x400)
	LDI  R26,0x60
__CLEAR_SRAM:
	ST   X+,R30
	SBIW R24,1
	BRNE __CLEAR_SRAM

;GLOBAL VARIABLES INITIALIZATION
	LDI  R30,LOW(__GLOBAL_INI_TBL*2)
	LDI  R31,HIGH(__GLOBAL_INI_TBL*2)
__GLOBAL_INI_NEXT:
	LPM  R24,Z+
	LPM  R25,Z+
	SBIW R24,0
	BREQ __GLOBAL_INI_END
	LPM  R26,Z+
	LPM  R27,Z+
	LPM  R0,Z+
	LPM  R1,Z+
	MOVW R22,R30
	MOVW R30,R0
__GLOBAL_INI_LOOP:
	LPM  R0,Z+
	ST   X+,R0
	SBIW R24,1
	BRNE __GLOBAL_INI_LOOP
	MOVW R30,R22
	RJMP __GLOBAL_INI_NEXT
__GLOBAL_INI_END:

;STACK POINTER INITIALIZATION
	LDI  R30,LOW(0x45F)
	OUT  SPL,R30
	LDI  R30,HIGH(0x45F)
	OUT  SPH,R30

;DATA STACK POINTER INITIALIZATION
	LDI  R28,LOW(0x160)
	LDI  R29,HIGH(0x160)

	RJMP _main

	.ESEG
	.ORG 0

	.DSEG
	.ORG 0x160

	.CSEG
;/*****************************************************
;This program was produced by the
;CodeWizardAVR V2.03.4 Standard
;Automatic Program Generator
;© Copyright 1998-2008 Pavel Haiduc, HP InfoTech s.r.l.
;http://www.hpinfotech.com
;
;Project :
;Version :
;Date    : 16.07.2010
;Author  :
;Company :
;Comments:
;
;
;Chip type           : ATmega8L
;Program type        : Application
;Clock frequency     : 8,000000 MHz
;Memory model        : Small
;External RAM size   : 0
;Data Stack size     : 256
;*****************************************************/
;
;unsigned char adc1,c;
;bit S_1=1;
;unsigned char Timer_2;
;unsigned int Timer_1,DataS[255];
;#include <stdlib.h>
;#include <stdio.h>
;#include <delay.h>
;#include <mega8.h>
	#ifndef __SLEEP_DEFINED__
	#define __SLEEP_DEFINED__
	.EQU __se_bit=0x80
	.EQU __sm_mask=0x70
	.EQU __sm_powerdown=0x20
	.EQU __sm_powersave=0x30
	.EQU __sm_standby=0x60
	.EQU __sm_ext_standby=0x70
	.EQU __sm_adc_noise_red=0x10
	.SET power_ctrl_reg=mcucr
	#endif
;#include <ADC.c>
;
;
;unsigned char read_adc(unsigned char adc_input)
; 0000 0020 {

	.CSEG
_read_adc:
;ADMUX=adc_input;
;	adc_input -> Y+0
	LD   R30,Y
	OUT  0x7,R30
;// Start the AD conversion
;ADCSRA|=0x40;
	RCALL SUBOPT_0x0
	ORI  R30,0x40
	OUT  0x6,R30
;// Wait for the AD conversion to complete
;while ((ADCSRA & 0x10)==0);
_0x3:
	RCALL SUBOPT_0x0
	ANDI R30,LOW(0x10)
	BREQ _0x3
;ADCSRA|=0x10;
	RCALL SUBOPT_0x0
	ORI  R30,0x10
	OUT  0x6,R30
;return ADCW;
	IN   R30,0x4
	IN   R31,0x4+1
	RJMP _0x20A0001
;adc1 = ADCH;
;}
;#include <Sound_1.c>
;
;void sound(){
; 0000 0021 void sound(){
_sound:
;if (S_1==1){ // если получено разрешение слышать сигнал
	LDI  R26,0
	SBRC R2,0
	LDI  R26,1
	CPI  R26,LOW(0x1)
	BRNE _0x6
;Timer_1++;
	MOVW R30,R8
	ADIW R30,1
	MOVW R8,R30
	SBIW R30,1
;if (Timer_1==1000){ //если таймер равен промежутку времени
	LDI  R30,LOW(1000)
	LDI  R31,HIGH(1000)
	CP   R30,R8
	CPC  R31,R9
	BRNE _0x7
;adc1=read_adc(0);
	LDI  R30,LOW(0)
	ST   -Y,R30
	RCALL _read_adc
	MOV  R5,R30
;Timer_1=0;
	CLR  R8
	CLR  R9
;Timer_2++;
	INC  R7
;DataS[Timer_2]=adc1;
	MOV  R30,R7
	RCALL SUBOPT_0x1
	ADD  R26,R30
	ADC  R27,R31
	MOV  R30,R5
	RCALL SUBOPT_0x2
	ST   X+,R30
	ST   X,R31
;if (Timer_2==20){Timer_2=0;
	LDI  R30,LOW(20)
	CP   R30,R7
	BRNE _0x8
	CLR  R7
;for (c=0;c<20;c++){printf("%d\n",DataS[c]);}printf("%d\n\r");}
	CLR  R4
_0xA:
	LDI  R30,LOW(20)
	CP   R4,R30
	BRSH _0xB
	__POINTW1FN _0x0,0
	RCALL SUBOPT_0x3
	MOV  R30,R4
	RCALL SUBOPT_0x1
	ADD  R26,R30
	ADC  R27,R31
	RCALL __GETW1P
	CLR  R22
	CLR  R23
	RCALL __PUTPARD1
	LDI  R24,4
	RCALL _printf
	ADIW R28,6
	INC  R4
	RJMP _0xA
_0xB:
	__POINTW1FN _0x0,4
	RCALL SUBOPT_0x3
	LDI  R24,0
	RCALL _printf
	ADIW R28,2
;}
_0x8:
;}
_0x7:
;}
_0x6:
	RET
;
;
;
;// Declare your global variables here
;
;
;
;interrupt [TIM0_OVF] void timer0_ovf_isr(void)
; 0000 002A {
_timer0_ovf_isr:
	ST   -Y,R0
	ST   -Y,R1
	ST   -Y,R15
	ST   -Y,R22
	ST   -Y,R23
	ST   -Y,R24
	ST   -Y,R25
	ST   -Y,R26
	ST   -Y,R27
	ST   -Y,R30
	ST   -Y,R31
	IN   R30,SREG
	ST   -Y,R30
; 0000 002B // Place your code here
; 0000 002C sound();
	RCALL _sound
; 0000 002D #include <Timer.c>
; 0000 002E 
; 0000 002F }
	LD   R30,Y+
	OUT  SREG,R30
	LD   R31,Y+
	LD   R30,Y+
	LD   R27,Y+
	LD   R26,Y+
	LD   R25,Y+
	LD   R24,Y+
	LD   R23,Y+
	LD   R22,Y+
	LD   R15,Y+
	LD   R1,Y+
	LD   R0,Y+
	RETI
;
;void main(void)
; 0000 0032 {
_main:
; 0000 0033 
; 0000 0034 PORTB=0x00;
	LDI  R30,LOW(0)
	OUT  0x18,R30
; 0000 0035 DDRB=0x00;
	OUT  0x17,R30
; 0000 0036 
; 0000 0037 PORTC=0xFF;
	LDI  R30,LOW(255)
	OUT  0x15,R30
; 0000 0038 DDRC=0xFF;
	OUT  0x14,R30
; 0000 0039 
; 0000 003A PORTD=0x00;
	LDI  R30,LOW(0)
	OUT  0x12,R30
; 0000 003B DDRD=0x00;
	OUT  0x11,R30
; 0000 003C 
; 0000 003D TCCR0=0x02;
	LDI  R30,LOW(2)
	OUT  0x33,R30
; 0000 003E TCNT0=0x00;
	LDI  R30,LOW(0)
	OUT  0x32,R30
; 0000 003F 
; 0000 0040 TCCR1A=0x00;
	OUT  0x2F,R30
; 0000 0041 TCCR1B=0x00;
	OUT  0x2E,R30
; 0000 0042 TCNT1H=0x00;
	OUT  0x2D,R30
; 0000 0043 TCNT1L=0x00;
	OUT  0x2C,R30
; 0000 0044 ICR1H=0x00;
	OUT  0x27,R30
; 0000 0045 ICR1L=0x00;
	OUT  0x26,R30
; 0000 0046 OCR1AH=0x00;
	OUT  0x2B,R30
; 0000 0047 OCR1AL=0x00;
	OUT  0x2A,R30
; 0000 0048 OCR1BH=0x00;
	OUT  0x29,R30
; 0000 0049 OCR1BL=0x00;
	OUT  0x28,R30
; 0000 004A 
; 0000 004B ASSR=0x00;
	OUT  0x22,R30
; 0000 004C TCCR2=0x00;
	OUT  0x25,R30
; 0000 004D TCNT2=0x00;
	OUT  0x24,R30
; 0000 004E OCR2=0x00;
	OUT  0x23,R30
; 0000 004F MCUCR=0x00;
	OUT  0x35,R30
; 0000 0050 
; 0000 0051 // Timer(s)/Counter(s) Interrupt(s) initialization
; 0000 0052 TIMSK=0x01;
	LDI  R30,LOW(1)
	OUT  0x39,R30
; 0000 0053 
; 0000 0054 UCSRA=0x00;
	LDI  R30,LOW(0)
	OUT  0xB,R30
; 0000 0055 UCSRB=0xD8;
	LDI  R30,LOW(216)
	OUT  0xA,R30
; 0000 0056 UCSRC=0x86;
	LDI  R30,LOW(134)
	OUT  0x20,R30
; 0000 0057 UBRRH=0x00;
	LDI  R30,LOW(0)
	OUT  0x20,R30
; 0000 0058 UBRRL=0x33;
	LDI  R30,LOW(51)
	OUT  0x9,R30
; 0000 0059 
; 0000 005A 
; 0000 005B // Analog Comparator initialization
; 0000 005C // Analog Comparator: Off
; 0000 005D // Analog Comparator Input Capture by Timer/Counter 1: Off
; 0000 005E SFIOR=0x00;
	LDI  R30,LOW(0)
	OUT  0x30,R30
; 0000 005F 
; 0000 0060 // ADC initialization
; 0000 0061 // ADC Clock frequency: 1000,000 kHz
; 0000 0062 // ADC Voltage Reference: AREF pin
; 0000 0063 ACSR=0x80;
	LDI  R30,LOW(128)
	OUT  0x8,R30
; 0000 0064 ADCSRA=0x84;
	LDI  R30,LOW(132)
	OUT  0x6,R30
; 0000 0065 
; 0000 0066 #asm("sei")
	sei
; 0000 0067 
; 0000 0068 while (1)
_0xC:
; 0000 0069       {
; 0000 006A 
; 0000 006B       // Place your code here
; 0000 006C       };
	RJMP _0xC
; 0000 006D }
_0xF:
	RJMP _0xF

	.CSEG

	.DSEG

	.CSEG
	#ifndef __SLEEP_DEFINED__
	#define __SLEEP_DEFINED__
	.EQU __se_bit=0x80
	.EQU __sm_mask=0x70
	.EQU __sm_powerdown=0x20
	.EQU __sm_powersave=0x30
	.EQU __sm_standby=0x60
	.EQU __sm_ext_standby=0x70
	.EQU __sm_adc_noise_red=0x10
	.SET power_ctrl_reg=mcucr
	#endif

	.CSEG
_putchar:
     sbis usr,udre
     rjmp _putchar
     ld   r30,y
     out  udr,r30
_0x20A0001:
	ADIW R28,1
	RET
__put_G101:
	RCALL __SAVELOCR2
	LDD  R26,Y+4
	LDD  R27,Y+4+1
	RCALL __GETW1P
	SBIW R30,0
	BREQ _0x2020010
	LDD  R26,Y+2
	LDD  R27,Y+2+1
	RCALL __GETW1P
	MOVW R16,R30
	SBIW R30,0
	BREQ _0x2020012
	__CPWRN 16,17,2
	BRLO _0x2020013
	MOVW R30,R16
	SBIW R30,1
	MOVW R16,R30
	ST   X+,R30
	ST   X,R31
_0x2020012:
	LDD  R26,Y+4
	LDD  R27,Y+4+1
	LD   R30,X+
	LD   R31,X+
	ADIW R30,1
	ST   -X,R31
	ST   -X,R30
	SBIW R30,1
	LDD  R26,Y+6
	STD  Z+0,R26
_0x2020013:
	RJMP _0x2020014
_0x2020010:
	LDD  R30,Y+6
	ST   -Y,R30
	RCALL _putchar
_0x2020014:
	RCALL __LOADLOCR2
	ADIW R28,7
	RET
__print_G101:
	SBIW R28,6
	RCALL __SAVELOCR6
	LDI  R17,0
_0x2020015:
	LDD  R30,Y+18
	LDD  R31,Y+18+1
	ADIW R30,1
	STD  Y+18,R30
	STD  Y+18+1,R31
	SBIW R30,1
	LPM  R30,Z
	MOV  R18,R30
	CPI  R30,0
	BRNE PC+2
	RJMP _0x2020017
	MOV  R30,R17
	RCALL SUBOPT_0x2
	SBIW R30,0
	BRNE _0x202001B
	CPI  R18,37
	BRNE _0x202001C
	LDI  R17,LOW(1)
	RJMP _0x202001D
_0x202001C:
	RCALL SUBOPT_0x4
_0x202001D:
	RJMP _0x202001A
_0x202001B:
	CPI  R30,LOW(0x1)
	LDI  R26,HIGH(0x1)
	CPC  R31,R26
	BRNE _0x202001E
	CPI  R18,37
	BRNE _0x202001F
	RCALL SUBOPT_0x4
	RJMP _0x20200BC
_0x202001F:
	LDI  R17,LOW(2)
	LDI  R20,LOW(0)
	LDI  R16,LOW(0)
	CPI  R18,45
	BRNE _0x2020020
	LDI  R16,LOW(1)
	RJMP _0x202001A
_0x2020020:
	CPI  R18,43
	BRNE _0x2020021
	LDI  R20,LOW(43)
	RJMP _0x202001A
_0x2020021:
	CPI  R18,32
	BRNE _0x2020022
	LDI  R20,LOW(32)
	RJMP _0x202001A
_0x2020022:
	RJMP _0x2020023
_0x202001E:
	CPI  R30,LOW(0x2)
	LDI  R26,HIGH(0x2)
	CPC  R31,R26
	BRNE _0x2020024
_0x2020023:
	LDI  R21,LOW(0)
	LDI  R17,LOW(3)
	CPI  R18,48
	BRNE _0x2020025
	RCALL SUBOPT_0x5
	LDI  R30,LOW(128)
	LDI  R31,HIGH(128)
	RCALL SUBOPT_0x6
	RJMP _0x202001A
_0x2020025:
	RJMP _0x2020026
_0x2020024:
	CPI  R30,LOW(0x3)
	LDI  R26,HIGH(0x3)
	CPC  R31,R26
	BREQ PC+2
	RJMP _0x202001A
_0x2020026:
	CPI  R18,48
	BRLO _0x2020029
	CPI  R18,58
	BRLO _0x202002A
_0x2020029:
	RJMP _0x2020028
_0x202002A:
	MOV  R26,R21
	RCALL SUBOPT_0x7
	LDI  R30,LOW(10)
	LDI  R31,HIGH(10)
	MULS R30,R26
	MOVW R30,R0
	MOV  R21,R30
	MOV  R22,R21
	CLR  R23
	MOV  R26,R18
	RCALL SUBOPT_0x7
	LDI  R30,LOW(48)
	LDI  R31,HIGH(48)
	RCALL __SWAPW12
	SUB  R30,R26
	SBC  R31,R27
	MOVW R26,R22
	ADD  R30,R26
	MOV  R21,R30
	RJMP _0x202001A
_0x2020028:
	MOV  R30,R18
	RCALL SUBOPT_0x2
	CPI  R30,LOW(0x63)
	LDI  R26,HIGH(0x63)
	CPC  R31,R26
	BRNE _0x202002E
	RCALL SUBOPT_0x8
	RCALL SUBOPT_0x9
	RCALL SUBOPT_0x8
	LDD  R26,Z+4
	ST   -Y,R26
	RCALL SUBOPT_0xA
	RJMP _0x202002F
_0x202002E:
	CPI  R30,LOW(0x73)
	LDI  R26,HIGH(0x73)
	CPC  R31,R26
	BRNE _0x2020031
	RCALL SUBOPT_0xB
	RCALL SUBOPT_0xC
	RCALL _strlen
	MOV  R17,R30
	RJMP _0x2020032
_0x2020031:
	CPI  R30,LOW(0x70)
	LDI  R26,HIGH(0x70)
	CPC  R31,R26
	BRNE _0x2020034
	RCALL SUBOPT_0xB
	RCALL SUBOPT_0xC
	RCALL _strlenf
	MOV  R17,R30
	RCALL SUBOPT_0x5
	LDI  R30,LOW(8)
	LDI  R31,HIGH(8)
	RCALL SUBOPT_0x6
_0x2020032:
	RCALL SUBOPT_0x5
	LDI  R30,LOW(2)
	LDI  R31,HIGH(2)
	RCALL SUBOPT_0x6
	RCALL SUBOPT_0x5
	LDI  R30,LOW(65407)
	LDI  R31,HIGH(65407)
	RCALL SUBOPT_0xD
	LDI  R19,LOW(0)
	RJMP _0x2020035
_0x2020034:
	CPI  R30,LOW(0x64)
	LDI  R26,HIGH(0x64)
	CPC  R31,R26
	BREQ _0x2020038
	CPI  R30,LOW(0x69)
	LDI  R26,HIGH(0x69)
	CPC  R31,R26
	BRNE _0x2020039
_0x2020038:
	RCALL SUBOPT_0x5
	RCALL SUBOPT_0xE
	RCALL SUBOPT_0x6
	RJMP _0x202003A
_0x2020039:
	CPI  R30,LOW(0x75)
	LDI  R26,HIGH(0x75)
	CPC  R31,R26
	BRNE _0x202003B
_0x202003A:
	LDI  R30,LOW(_tbl10_G101*2)
	LDI  R31,HIGH(_tbl10_G101*2)
	RCALL SUBOPT_0xF
	LDI  R17,LOW(5)
	RJMP _0x202003C
_0x202003B:
	CPI  R30,LOW(0x58)
	LDI  R26,HIGH(0x58)
	CPC  R31,R26
	BRNE _0x202003E
	RCALL SUBOPT_0x5
	LDI  R30,LOW(8)
	LDI  R31,HIGH(8)
	RCALL SUBOPT_0x6
	RJMP _0x202003F
_0x202003E:
	CPI  R30,LOW(0x78)
	LDI  R26,HIGH(0x78)
	CPC  R31,R26
	BREQ PC+2
	RJMP _0x2020070
_0x202003F:
	LDI  R30,LOW(_tbl16_G101*2)
	LDI  R31,HIGH(_tbl16_G101*2)
	RCALL SUBOPT_0xF
	LDI  R17,LOW(4)
_0x202003C:
	RCALL SUBOPT_0x5
	RCALL SUBOPT_0x10
	BREQ _0x2020041
	RCALL SUBOPT_0xB
	RCALL SUBOPT_0x11
	LDD  R26,Y+11
	TST  R26
	BRPL _0x2020042
	LDD  R30,Y+10
	LDD  R31,Y+10+1
	RCALL __ANEGW1
	STD  Y+10,R30
	STD  Y+10+1,R31
	LDI  R20,LOW(45)
_0x2020042:
	CPI  R20,0
	BREQ _0x2020043
	SUBI R17,-LOW(1)
	RJMP _0x2020044
_0x2020043:
	RCALL SUBOPT_0x5
	RCALL SUBOPT_0x12
_0x2020044:
	RJMP _0x2020045
_0x2020041:
	RCALL SUBOPT_0xB
	RCALL SUBOPT_0x11
_0x2020045:
_0x2020035:
	RCALL SUBOPT_0x13
	BRNE _0x2020046
_0x2020047:
	CP   R17,R21
	BRSH _0x2020049
	RCALL SUBOPT_0x5
	RCALL SUBOPT_0x14
	BREQ _0x202004A
	RCALL SUBOPT_0x5
	RCALL SUBOPT_0x10
	BREQ _0x202004B
	RCALL SUBOPT_0x5
	RCALL SUBOPT_0x12
	MOV  R18,R20
	SUBI R17,LOW(1)
	RJMP _0x202004C
_0x202004B:
	LDI  R18,LOW(48)
_0x202004C:
	RJMP _0x202004D
_0x202004A:
	LDI  R18,LOW(32)
_0x202004D:
	RCALL SUBOPT_0x4
	SUBI R21,LOW(1)
	RJMP _0x2020047
_0x2020049:
_0x2020046:
	MOV  R19,R17
	RCALL SUBOPT_0x5
	LDI  R30,LOW(2)
	LDI  R31,HIGH(2)
	RCALL SUBOPT_0x15
	BREQ _0x202004E
_0x202004F:
	CPI  R19,0
	BREQ _0x2020051
	RCALL SUBOPT_0x5
	LDI  R30,LOW(8)
	LDI  R31,HIGH(8)
	RCALL SUBOPT_0x15
	BREQ _0x2020052
	LDD  R30,Y+6
	LDD  R31,Y+6+1
	ADIW R30,1
	RCALL SUBOPT_0xF
	SBIW R30,1
	LPM  R30,Z
	RJMP _0x20200BD
_0x2020052:
	LDD  R26,Y+6
	LDD  R27,Y+6+1
	LD   R30,X+
	STD  Y+6,R26
	STD  Y+6+1,R27
_0x20200BD:
	ST   -Y,R30
	RCALL SUBOPT_0xA
	CPI  R21,0
	BREQ _0x2020054
	SUBI R21,LOW(1)
_0x2020054:
	SUBI R19,LOW(1)
	RJMP _0x202004F
_0x2020051:
	RJMP _0x2020055
_0x202004E:
_0x2020057:
	LDI  R18,LOW(48)
	LDD  R30,Y+6
	LDD  R31,Y+6+1
	RCALL __GETW1PF
	STD  Y+8,R30
	STD  Y+8+1,R31
	LDD  R30,Y+6
	LDD  R31,Y+6+1
	ADIW R30,2
	RCALL SUBOPT_0xF
_0x2020059:
	LDD  R30,Y+8
	LDD  R31,Y+8+1
	LDD  R26,Y+10
	LDD  R27,Y+10+1
	CP   R26,R30
	CPC  R27,R31
	BRLO _0x202005B
	SUBI R18,-LOW(1)
	LDD  R26,Y+8
	LDD  R27,Y+8+1
	LDD  R30,Y+10
	LDD  R31,Y+10+1
	SUB  R30,R26
	SBC  R31,R27
	STD  Y+10,R30
	STD  Y+10+1,R31
	RJMP _0x2020059
_0x202005B:
	CPI  R18,58
	BRLO _0x202005C
	RCALL SUBOPT_0x5
	LDI  R30,LOW(8)
	LDI  R31,HIGH(8)
	RCALL SUBOPT_0x15
	BREQ _0x202005D
	MOV  R30,R18
	RCALL SUBOPT_0x2
	ADIW R30,7
	RJMP _0x20200BE
_0x202005D:
	MOV  R30,R18
	RCALL SUBOPT_0x2
	ADIW R30,39
_0x20200BE:
	MOV  R18,R30
_0x202005C:
	RCALL SUBOPT_0x5
	LDI  R30,LOW(16)
	LDI  R31,HIGH(16)
	RCALL SUBOPT_0x15
	BRNE _0x2020060
	CPI  R18,49
	BRSH _0x2020062
	LDD  R26,Y+8
	LDD  R27,Y+8+1
	SBIW R26,1
	BRNE _0x2020061
_0x2020062:
	RJMP _0x20200BF
_0x2020061:
	CP   R21,R19
	BRLO _0x2020066
	RCALL SUBOPT_0x13
	BREQ _0x2020067
_0x2020066:
	RJMP _0x2020065
_0x2020067:
	LDI  R18,LOW(32)
	RCALL SUBOPT_0x5
	RCALL SUBOPT_0x14
	BREQ _0x2020068
	LDI  R18,LOW(48)
_0x20200BF:
	MOV  R26,R16
	RCALL SUBOPT_0x7
	LDI  R30,LOW(16)
	LDI  R31,HIGH(16)
	RCALL SUBOPT_0x6
	RCALL SUBOPT_0x5
	RCALL SUBOPT_0x10
	BREQ _0x2020069
	RCALL SUBOPT_0x5
	RCALL SUBOPT_0x12
	ST   -Y,R20
	RCALL SUBOPT_0xA
	CPI  R21,0
	BREQ _0x202006A
	SUBI R21,LOW(1)
_0x202006A:
_0x2020069:
_0x2020068:
_0x2020060:
	RCALL SUBOPT_0x4
	CPI  R21,0
	BREQ _0x202006B
	SUBI R21,LOW(1)
_0x202006B:
_0x2020065:
	SUBI R19,LOW(1)
	LDD  R26,Y+8
	LDD  R27,Y+8+1
	SBIW R26,2
	BRLO _0x2020058
	RJMP _0x2020057
_0x2020058:
_0x2020055:
	RCALL SUBOPT_0x13
	BREQ _0x202006C
_0x202006D:
	CPI  R21,0
	BREQ _0x202006F
	SUBI R21,LOW(1)
	LDI  R30,LOW(32)
	ST   -Y,R30
	RCALL SUBOPT_0xA
	RJMP _0x202006D
_0x202006F:
_0x202006C:
_0x2020070:
_0x202002F:
_0x20200BC:
	LDI  R17,LOW(0)
_0x202001A:
	RJMP _0x2020015
_0x2020017:
	RCALL __LOADLOCR6
	ADIW R28,20
	RET
_printf:
	PUSH R15
	MOV  R15,R24
	SBIW R28,2
	RCALL __SAVELOCR2
	MOVW R26,R28
	RCALL __ADDW2R15
	MOVW R16,R26
	LDI  R30,0
	STD  Y+2,R30
	STD  Y+2+1,R30
	MOVW R26,R28
	ADIW R26,4
	RCALL __ADDW2R15
	RCALL __GETW1P
	RCALL SUBOPT_0x3
	ST   -Y,R17
	ST   -Y,R16
	MOVW R30,R28
	ADIW R30,6
	RCALL SUBOPT_0x3
	LDI  R30,LOW(0)
	LDI  R31,HIGH(0)
	RCALL SUBOPT_0x3
	RCALL __print_G101
	RCALL __LOADLOCR2
	ADIW R28,4
	POP  R15
	RET

	.CSEG

	.CSEG

	.CSEG
_strlen:
    ld   r26,y+
    ld   r27,y+
    clr  r30
    clr  r31
strlen0:
    ld   r22,x+
    tst  r22
    breq strlen1
    adiw r30,1
    rjmp strlen0
strlen1:
    ret
_strlenf:
    clr  r26
    clr  r27
    ld   r30,y+
    ld   r31,y+
strlenf0:
    lpm  r0,z+
    tst  r0
    breq strlenf1
    adiw r26,1
    rjmp strlenf0
strlenf1:
    movw r30,r26
    ret

	.DSEG
_DataS:
	.BYTE 0x1FE
__seed_G100:
	.BYTE 0x4
_p_S1040024:
	.BYTE 0x2

	.CSEG
;OPTIMIZER ADDED SUBROUTINE, CALLED 3 TIMES, CODE SIZE REDUCTION:4 WORDS
SUBOPT_0x0:
	IN   R30,0x6
	LDI  R31,0
	RET

;OPTIMIZER ADDED SUBROUTINE, CALLED 2 TIMES, CODE SIZE REDUCTION:4 WORDS
SUBOPT_0x1:
	LDI  R26,LOW(_DataS)
	LDI  R27,HIGH(_DataS)
	LDI  R31,0
	LSL  R30
	ROL  R31
	RET

;OPTIMIZER ADDED SUBROUTINE, CALLED 8 TIMES, CODE SIZE REDUCTION:12 WORDS
SUBOPT_0x2:
	LDI  R31,0
	RET

;OPTIMIZER ADDED SUBROUTINE, CALLED 23 TIMES, CODE SIZE REDUCTION:20 WORDS
SUBOPT_0x3:
	ST   -Y,R31
	ST   -Y,R30
	RET

;OPTIMIZER ADDED SUBROUTINE, CALLED 4 TIMES, CODE SIZE REDUCTION:19 WORDS
SUBOPT_0x4:
	ST   -Y,R18
	LDD  R30,Y+15
	LDD  R31,Y+15+1
	RCALL SUBOPT_0x3
	MOVW R30,R28
	ADIW R30,15
	RCALL SUBOPT_0x3
	RJMP __put_G101

;OPTIMIZER ADDED SUBROUTINE, CALLED 18 TIMES, CODE SIZE REDUCTION:49 WORDS
SUBOPT_0x5:
	MOV  R26,R16
	LDI  R27,0
	RET

;OPTIMIZER ADDED SUBROUTINE, CALLED 6 TIMES, CODE SIZE REDUCTION:3 WORDS
SUBOPT_0x6:
	OR   R30,R26
	MOV  R16,R30
	RET

;OPTIMIZER ADDED SUBROUTINE, CALLED 3 TIMES, CODE SIZE REDUCTION:2 WORDS
SUBOPT_0x7:
	LDI  R27,0
	RET

;OPTIMIZER ADDED SUBROUTINE, CALLED 6 TIMES, CODE SIZE REDUCTION:3 WORDS
SUBOPT_0x8:
	LDD  R30,Y+16
	LDD  R31,Y+16+1
	RET

;OPTIMIZER ADDED SUBROUTINE, CALLED 5 TIMES, CODE SIZE REDUCTION:6 WORDS
SUBOPT_0x9:
	SBIW R30,4
	STD  Y+16,R30
	STD  Y+16+1,R31
	RET

;OPTIMIZER ADDED SUBROUTINE, CALLED 4 TIMES, CODE SIZE REDUCTION:16 WORDS
SUBOPT_0xA:
	LDD  R30,Y+15
	LDD  R31,Y+15+1
	RCALL SUBOPT_0x3
	MOVW R30,R28
	ADIW R30,15
	RCALL SUBOPT_0x3
	RJMP __put_G101

;OPTIMIZER ADDED SUBROUTINE, CALLED 4 TIMES, CODE SIZE REDUCTION:1 WORDS
SUBOPT_0xB:
	RCALL SUBOPT_0x8
	RJMP SUBOPT_0x9

;OPTIMIZER ADDED SUBROUTINE, CALLED 2 TIMES, CODE SIZE REDUCTION:6 WORDS
SUBOPT_0xC:
	LDD  R26,Y+16
	LDD  R27,Y+16+1
	ADIW R26,4
	RCALL __GETW1P
	STD  Y+6,R30
	STD  Y+6+1,R31
	RJMP SUBOPT_0x3

;OPTIMIZER ADDED SUBROUTINE, CALLED 4 TIMES, CODE SIZE REDUCTION:1 WORDS
SUBOPT_0xD:
	AND  R30,R26
	MOV  R16,R30
	RET

;OPTIMIZER ADDED SUBROUTINE, CALLED 4 TIMES, CODE SIZE REDUCTION:1 WORDS
SUBOPT_0xE:
	LDI  R30,LOW(4)
	LDI  R31,HIGH(4)
	RET

;OPTIMIZER ADDED SUBROUTINE, CALLED 4 TIMES, CODE SIZE REDUCTION:1 WORDS
SUBOPT_0xF:
	STD  Y+6,R30
	STD  Y+6+1,R31
	RET

;OPTIMIZER ADDED SUBROUTINE, CALLED 3 TIMES, CODE SIZE REDUCTION:4 WORDS
SUBOPT_0x10:
	RCALL SUBOPT_0xE
	AND  R30,R26
	AND  R31,R27
	SBIW R30,0
	RET

;OPTIMIZER ADDED SUBROUTINE, CALLED 2 TIMES, CODE SIZE REDUCTION:3 WORDS
SUBOPT_0x11:
	LDD  R26,Y+16
	LDD  R27,Y+16+1
	ADIW R26,4
	RCALL __GETW1P
	STD  Y+10,R30
	STD  Y+10+1,R31
	RET

;OPTIMIZER ADDED SUBROUTINE, CALLED 3 TIMES, CODE SIZE REDUCTION:2 WORDS
SUBOPT_0x12:
	LDI  R30,LOW(65531)
	LDI  R31,HIGH(65531)
	RJMP SUBOPT_0xD

;OPTIMIZER ADDED SUBROUTINE, CALLED 3 TIMES, CODE SIZE REDUCTION:2 WORDS
SUBOPT_0x13:
	MOV  R30,R16
	RCALL SUBOPT_0x2
	ANDI R30,LOW(0x1)
	RET

;OPTIMIZER ADDED SUBROUTINE, CALLED 2 TIMES, CODE SIZE REDUCTION:2 WORDS
SUBOPT_0x14:
	LDI  R30,LOW(128)
	LDI  R31,HIGH(128)
	AND  R30,R26
	AND  R31,R27
	SBIW R30,0
	RET

;OPTIMIZER ADDED SUBROUTINE, CALLED 4 TIMES, CODE SIZE REDUCTION:4 WORDS
SUBOPT_0x15:
	AND  R30,R26
	AND  R31,R27
	SBIW R30,0
	RET


	.CSEG
__ADDW2R15:
	CLR  R0
	ADD  R26,R15
	ADC  R27,R0
	RET

__ANEGW1:
	NEG  R31
	NEG  R30
	SBCI R31,0
	RET

__GETW1P:
	LD   R30,X+
	LD   R31,X
	SBIW R26,1
	RET

__GETW1PF:
	LPM  R0,Z+
	LPM  R31,Z
	MOV  R30,R0
	RET

__PUTPARD1:
	ST   -Y,R23
	ST   -Y,R22
	ST   -Y,R31
	ST   -Y,R30
	RET

__SWAPW12:
	MOV  R1,R27
	MOV  R27,R31
	MOV  R31,R1

__SWAPB12:
	MOV  R1,R26
	MOV  R26,R30
	MOV  R30,R1
	RET

__SAVELOCR6:
	ST   -Y,R21
__SAVELOCR5:
	ST   -Y,R20
__SAVELOCR4:
	ST   -Y,R19
__SAVELOCR3:
	ST   -Y,R18
__SAVELOCR2:
	ST   -Y,R17
	ST   -Y,R16
	RET

__LOADLOCR6:
	LDD  R21,Y+5
__LOADLOCR5:
	LDD  R20,Y+4
__LOADLOCR4:
	LDD  R19,Y+3
__LOADLOCR3:
	LDD  R18,Y+2
__LOADLOCR2:
	LDD  R17,Y+1
	LD   R16,Y
	RET

;END OF CODE MARKER
__END_OF_CODE:
